Component: ARM Compiler 5.06 update 7 (build 960) Tool: armlink [4d3601]

==============================================================================

Section Cross References

    startup_stm32f205xx.o(STACK) refers (Special) to heapauxi.o(.text) for __use_two_region_memory
    startup_stm32f205xx.o(HEAP) refers (Special) to heapauxi.o(.text) for __use_two_region_memory
    startup_stm32f205xx.o(RESET) refers (Special) to heapauxi.o(.text) for __use_two_region_memory
    startup_stm32f205xx.o(RESET) refers to startup_stm32f205xx.o(STACK) for __initial_sp
    startup_stm32f205xx.o(RESET) refers to startup_stm32f205xx.o(.text) for Reset_Handler
    startup_stm32f205xx.o(RESET) refers to stm32f2xx_it.o(i.NMI_Handler) for NMI_Handler
    startup_stm32f205xx.o(RESET) refers to stm32f2xx_it.o(i.HardFault_Handler) for HardFault_Handler
    startup_stm32f205xx.o(RESET) refers to stm32f2xx_it.o(i.MemManage_Handler) for MemManage_Handler
    startup_stm32f205xx.o(RESET) refers to stm32f2xx_it.o(i.BusFault_Handler) for BusFault_Handler
    startup_stm32f205xx.o(RESET) refers to stm32f2xx_it.o(i.UsageFault_Handler) for UsageFault_Handler
    startup_stm32f205xx.o(RESET) refers to stm32f2xx_it.o(i.SVC_Handler) for SVC_Handler
    startup_stm32f205xx.o(RESET) refers to stm32f2xx_it.o(i.DebugMon_Handler) for DebugMon_Handler
    startup_stm32f205xx.o(RESET) refers to stm32f2xx_it.o(i.PendSV_Handler) for PendSV_Handler
    startup_stm32f205xx.o(RESET) refers to stm32f2xx_it.o(i.SysTick_Handler) for SysTick_Handler
    startup_stm32f205xx.o(RESET) refers to stm32f2xx_it.o(i.USART1_IRQHandler) for USART1_IRQHandler
    startup_stm32f205xx.o(RESET) refers to stm32f2xx_it.o(i.USART2_IRQHandler) for USART2_IRQHandler
    startup_stm32f205xx.o(RESET) refers to stm32f2xx_it.o(i.USART3_IRQHandler) for USART3_IRQHandler
    startup_stm32f205xx.o(RESET) refers to stm32f2xx_it.o(i.UART4_IRQHandler) for UART4_IRQHandler
    startup_stm32f205xx.o(RESET) refers to stm32f2xx_it.o(i.UART5_IRQHandler) for UART5_IRQHandler
    startup_stm32f205xx.o(RESET) refers to stm32f2xx_it.o(i.TIM6_DAC_IRQHandler) for TIM6_DAC_IRQHandler
    startup_stm32f205xx.o(RESET) refers to stm32f2xx_it.o(i.DMA2_Stream2_IRQHandler) for DMA2_Stream2_IRQHandler
    startup_stm32f205xx.o(RESET) refers to stm32f2xx_it.o(i.DMA2_Stream7_IRQHandler) for DMA2_Stream7_IRQHandler
    startup_stm32f205xx.o(.text) refers (Special) to heapauxi.o(.text) for __use_two_region_memory
    startup_stm32f205xx.o(.text) refers to system_stm32f2xx.o(i.SystemInit) for SystemInit
    startup_stm32f205xx.o(.text) refers to __main.o(!!!main) for __main
    startup_stm32f205xx.o(.text) refers to startup_stm32f205xx.o(HEAP) for Heap_Mem
    startup_stm32f205xx.o(.text) refers to startup_stm32f205xx.o(STACK) for Stack_Mem
    main.o(i.SystemClock_Config) refers to rt_memclr_w.o(.text) for __aeabi_memclr4
    main.o(i.SystemClock_Config) refers to stm32f2xx_hal_rcc.o(i.HAL_RCC_OscConfig) for HAL_RCC_OscConfig
    main.o(i.SystemClock_Config) refers to stm32f2xx_hal_rcc.o(i.HAL_RCC_ClockConfig) for HAL_RCC_ClockConfig
    main.o(i.SystemClock_Config) refers to stm32f2xx_hal_rcc_ex.o(i.HAL_RCCEx_PeriphCLKConfig) for HAL_RCCEx_PeriphCLKConfig
    main.o(i.main) refers to _printf_percent.o(.ARM.Collect$$_printf_percent$$00000000) for _printf_percent
    main.o(i.main) refers to _printf_s.o(.ARM.Collect$$_printf_percent$$00000014) for _printf_s
    main.o(i.main) refers to _printf_str.o(.text) for _printf_str
    main.o(i.main) refers to _printf_x.o(.ARM.Collect$$_printf_percent$$0000000C) for _printf_x
    main.o(i.main) refers to _printf_hex_int.o(.text) for _printf_longlong_hex
    main.o(i.main) refers to _printf_f.o(.ARM.Collect$$_printf_percent$$00000003) for _printf_f
    main.o(i.main) refers to printf1.o(x$fpl$printf1) for _printf_fp_dec
    main.o(i.main) refers to _printf_pad.o(.text) for _printf_pre_padding
    main.o(i.main) refers to stm32f2xx_hal.o(i.HAL_Init) for HAL_Init
    main.o(i.main) refers to main.o(i.SystemClock_Config) for SystemClock_Config
    main.o(i.main) refers to stm32f2xx_hal.o(i.HAL_Delay) for HAL_Delay
    main.o(i.main) refers to gpio.o(i.MX_GPIO_Init) for MX_GPIO_Init
    main.o(i.main) refers to dma.o(i.MX_DMA_Init) for MX_DMA_Init
    main.o(i.main) refers to adc.o(i.MX_ADC1_Init) for MX_ADC1_Init
    main.o(i.main) refers to rtc.o(i.MX_RTC_Init) for MX_RTC_Init
    main.o(i.main) refers to usart.o(i.MX_UART4_Init) for MX_UART4_Init
    main.o(i.main) refers to usart.o(i.MX_USART1_UART_Init) for MX_USART1_UART_Init
    main.o(i.main) refers to usart.o(i.MX_UART5_Init) for MX_UART5_Init
    main.o(i.main) refers to usart.o(i.MX_USART3_UART_Init) for MX_USART3_UART_Init
    main.o(i.main) refers to tim.o(i.MX_TIM4_Init) for MX_TIM4_Init
    main.o(i.main) refers to tim.o(i.MX_TIM6_Init) for MX_TIM6_Init
    main.o(i.main) refers to tim.o(i.MX_TIM7_Init) for MX_TIM7_Init
    main.o(i.main) refers to iwdg.o(i.MX_IWDG_Init) for MX_IWDG_Init
    main.o(i.main) refers to usart.o(i.MX_USART2_UART_Init) for MX_USART2_UART_Init
    main.o(i.main) refers to spi.o(i.MX_SPI2_Init) for MX_SPI2_Init
    main.o(i.main) refers to noretval__2sprintf.o(.text) for __2sprintf
    main.o(i.main) refers to strlen.o(.text) for strlen
    main.o(i.main) refers to usart.o(i.UsartSetTxBuf) for UsartSetTxBuf
    main.o(i.main) refers to stm32f2xx_hal_adc.o(i.HAL_ADC_Start) for HAL_ADC_Start
    main.o(i.main) refers to stm32f2xx_hal_tim.o(i.HAL_TIM_PWM_Start) for HAL_TIM_PWM_Start
    main.o(i.main) refers to usart.o(i.GetRTCFromHMI) for GetRTCFromHMI
    main.o(i.main) refers to spi.o(i.SpiFlashReadID) for SpiFlashReadID
    main.o(i.main) refers to spi.o(i.SpiFlashReadOffset) for SpiFlashReadOffset
    main.o(i.main) refers to usart.o(i.ClearTxtContent) for ClearTxtContent
    main.o(i.main) refers to adc.o(i.AdcConvert) for AdcConvert
    main.o(i.main) refers to usart.o(i.IBPDataAnalysis) for IBPDataAnalysis
    main.o(i.main) refers to usart.o(i.UsartSendData) for UsartSendData
    main.o(i.main) refers to gpio.o(i.GpioChk) for GpioChk
    main.o(i.main) refers to usart.o(i.HmiCmdDealt) for HmiCmdDealt
    main.o(i.main) refers to usart.o(i.FlowDealt) for FlowDealt
    main.o(i.main) refers to usart.o(i.BatteryDealt) for BatteryDealt
    main.o(i.main) refers to usart.o(i.IBPCmdSend) for IBPCmdSend
    main.o(i.main) refers to usart.o(i.HmiAdjustDected) for HmiAdjustDected
    main.o(i.main) refers to adc.o(i.ADCFilter) for ADCFilter
    main.o(i.main) refers to usart.o(i.FLowGetData) for FLowGetData
    main.o(i.main) refers to stm32f2xx_hal_gpio.o(i.HAL_GPIO_TogglePin) for HAL_GPIO_TogglePin
    main.o(i.main) refers to faddsub_clz.o(x$fpl$fsub) for __aeabi_fsub
    main.o(i.main) refers to usart.o(i.ChangeTxtValue) for ChangeTxtValue
    main.o(i.main) refers to gpio.o(i.RGBLedDealt) for RGBLedDealt
    main.o(i.main) refers to usart.o(i.AdcSetSpeed) for AdcSetSpeed
    main.o(i.main) refers to dflt_clz.o(x$fpl$dflt) for __aeabi_i2d
    main.o(i.main) refers to ddiv.o(x$fpl$ddiv) for __aeabi_ddiv
    main.o(i.main) refers to dmul.o(x$fpl$dmul) for __aeabi_dmul
    main.o(i.main) refers to dfixu.o(x$fpl$dfixu) for __aeabi_d2uiz
    main.o(i.main) refers to fdiv.o(x$fpl$fdiv) for __aeabi_fdiv
    main.o(i.main) refers to usart.o(i.BatteryGetData) for BatteryGetData
    main.o(i.main) refers to usart.o(i.BubbleTimer) for BubbleTimer
    main.o(i.main) refers to usart.o(i.SetScreenCurveRange) for SetScreenCurveRange
    main.o(i.main) refers to rtc.o(i.RtcGetDateTime) for RtcGetDateTime
    main.o(i.main) refers to f2d.o(x$fpl$f2d) for __aeabi_f2d
    main.o(i.main) refers to dflt_clz.o(x$fpl$dfltu) for __aeabi_ui2d
    main.o(i.main) refers to daddsub_clz.o(x$fpl$drsb) for __aeabi_drsub
    main.o(i.main) refers to daddsub_clz.o(x$fpl$dadd) for __aeabi_dadd
    main.o(i.main) refers to d2f.o(x$fpl$d2f) for __aeabi_d2f
    main.o(i.main) refers to scalbn.o(x$fpl$scalbn) for __ARM_scalbn
    main.o(i.main) refers to dfix.o(x$fpl$dfix) for __aeabi_d2iz
    main.o(i.main) refers to usart.o(i.HmiWorkTimerRefresh) for HmiWorkTimerRefresh
    main.o(i.main) refers to usart.o(i.BatteryUpDate) for BatteryUpDate
    main.o(i.main) refers to usart.o(i.AddHistorySampleDateFloat) for AddHistorySampleDateFloat
    main.o(i.main) refers to usart.o(i.AddHistorySampleDateFloatTwice) for AddHistorySampleDateFloatTwice
    main.o(i.main) refers to spi.o(i.SpiFlashSetOffset) for SpiFlashSetOffset
    main.o(i.main) refers to usart.o(.bss) for sysIbpPar
    main.o(i.main) refers to adc.o(.bss) for hadc1
    main.o(i.main) refers to tim.o(.bss) for htim4
    main.o(i.main) refers to stm32f2xx_it.o(.data) for sysTimeFlag
    main.o(i.main) refers to spi.o(.data) for offsetPre1
    main.o(i.main) refers to main.o(.bss) for .bss
    main.o(i.main) refers to gpio.o(.data) for em0Status
    main.o(i.main) refers to usart.o(.data) for setFlag
    gpio.o(i.GpioChk) refers to stm32f2xx_hal_gpio.o(i.HAL_GPIO_ReadPin) for HAL_GPIO_ReadPin
    gpio.o(i.GpioChk) refers to stm32f2xx_hal_gpio.o(i.HAL_GPIO_WritePin) for HAL_GPIO_WritePin
    gpio.o(i.GpioChk) refers to usart.o(i.ChangeIconFrame) for ChangeIconFrame
    gpio.o(i.GpioChk) refers to stm32f2xx_hal_tim.o(i.HAL_TIM_PWM_Stop) for HAL_TIM_PWM_Stop
    gpio.o(i.GpioChk) refers to stm32f2xx_hal_tim.o(i.HAL_TIM_PWM_Start) for HAL_TIM_PWM_Start
    gpio.o(i.GpioChk) refers to gpio.o(.data) for .data
    gpio.o(i.GpioChk) refers to usart.o(.bss) for sysHmiPar
    gpio.o(i.GpioChk) refers to tim.o(.bss) for htim4
    gpio.o(i.MX_GPIO_Init) refers to rt_memclr_w.o(.text) for __aeabi_memclr4
    gpio.o(i.MX_GPIO_Init) refers to stm32f2xx_hal_gpio.o(i.HAL_GPIO_WritePin) for HAL_GPIO_WritePin
    gpio.o(i.MX_GPIO_Init) refers to stm32f2xx_hal_gpio.o(i.HAL_GPIO_Init) for HAL_GPIO_Init
    gpio.o(i.RGBLedDealt) refers to stm32f2xx_hal_gpio.o(i.HAL_GPIO_WritePin) for HAL_GPIO_WritePin
    gpio.o(i.RGBLedDealt) refers to stm32f2xx_hal_gpio.o(i.HAL_GPIO_TogglePin) for HAL_GPIO_TogglePin
    gpio.o(i.RGBLedDealt) refers to gpio.o(.data) for .data
    adc.o(i.ADCFilter) refers to adc.o(.data) for .data
    adc.o(i.ADCFilter) refers to adc.o(.bss) for .bss
    adc.o(i.AdcConvert) refers to stm32f2xx_hal_adc.o(i.HAL_ADC_GetValue) for HAL_ADC_GetValue
    adc.o(i.AdcConvert) refers to adc.o(i.AdcFilterValue) for AdcFilterValue
    adc.o(i.AdcConvert) refers to stm32f2xx_hal_adc.o(i.HAL_ADC_Stop) for HAL_ADC_Stop
    adc.o(i.AdcConvert) refers to stm32f2xx_hal_adc.o(i.HAL_ADC_Start) for HAL_ADC_Start
    adc.o(i.AdcConvert) refers to adc.o(.constdata) for .constdata
    adc.o(i.AdcConvert) refers to adc.o(.data) for .data
    adc.o(i.AdcConvert) refers to adc.o(.bss) for .bss
    adc.o(i.HAL_ADC_MspDeInit) refers to stm32f2xx_hal_gpio.o(i.HAL_GPIO_DeInit) for HAL_GPIO_DeInit
    adc.o(i.HAL_ADC_MspInit) refers to rt_memclr_w.o(.text) for __aeabi_memclr4
    adc.o(i.HAL_ADC_MspInit) refers to stm32f2xx_hal_gpio.o(i.HAL_GPIO_Init) for HAL_GPIO_Init
    adc.o(i.MX_ADC1_Init) refers to stm32f2xx_hal_adc.o(i.HAL_ADC_Init) for HAL_ADC_Init
    adc.o(i.MX_ADC1_Init) refers to main.o(i.Error_Handler) for Error_Handler
    adc.o(i.MX_ADC1_Init) refers to stm32f2xx_hal_adc.o(i.HAL_ADC_ConfigChannel) for HAL_ADC_ConfigChannel
    adc.o(i.MX_ADC1_Init) refers to stm32f2xx_hal_adc.o(i.HAL_ADC_Stop) for HAL_ADC_Stop
    adc.o(i.MX_ADC1_Init) refers to adc.o(.bss) for .bss
    dma.o(i.MX_DMA_Init) refers to stm32f2xx_hal_cortex.o(i.HAL_NVIC_SetPriority) for HAL_NVIC_SetPriority
    dma.o(i.MX_DMA_Init) refers to stm32f2xx_hal_cortex.o(i.HAL_NVIC_EnableIRQ) for HAL_NVIC_EnableIRQ
    rtc.o(i.MX_RTC_Init) refers to stm32f2xx_hal_rtc.o(i.HAL_RTC_Init) for HAL_RTC_Init
    rtc.o(i.MX_RTC_Init) refers to main.o(i.Error_Handler) for Error_Handler
    rtc.o(i.MX_RTC_Init) refers to rtc.o(.bss) for .bss
    rtc.o(i.RTCSetDateAndTime) refers to stm32f2xx_hal_rtc.o(i.HAL_RTC_SetDate) for HAL_RTC_SetDate
    rtc.o(i.RTCSetDateAndTime) refers to stm32f2xx_hal_rtc.o(i.HAL_RTC_SetTime) for HAL_RTC_SetTime
    rtc.o(i.RTCSetDateAndTime) refers to rtc.o(i.RtcGetDateTime) for RtcGetDateTime
    rtc.o(i.RTCSetDateAndTime) refers to usart.o(.bss) for sysHmiPar
    rtc.o(i.RTCSetDateAndTime) refers to rtc.o(.bss) for .bss
    rtc.o(i.RTCSetTime) refers to stm32f2xx_hal_rtc.o(i.HAL_RTC_SetTime) for HAL_RTC_SetTime
    rtc.o(i.RTCSetTime) refers to rtc.o(i.RtcGetDateTime) for RtcGetDateTime
    rtc.o(i.RTCSetTime) refers to rtc.o(.bss) for .bss
    rtc.o(i.RtcGetDateTime) refers to stm32f2xx_hal_rtc.o(i.HAL_RTC_GetTime) for HAL_RTC_GetTime
    rtc.o(i.RtcGetDateTime) refers to stm32f2xx_hal_rtc.o(i.HAL_RTC_GetDate) for HAL_RTC_GetDate
    rtc.o(i.RtcGetDateTime) refers to usart.o(.bss) for sysHmiPar
    rtc.o(i.RtcGetDateTime) refers to rtc.o(.bss) for .bss
    rtc.o(i.RtcSetDate) refers to stm32f2xx_hal_rtc.o(i.HAL_RTC_SetDate) for HAL_RTC_SetDate
    rtc.o(i.RtcSetDate) refers to rtc.o(i.RtcGetDateTime) for RtcGetDateTime
    rtc.o(i.RtcSetDate) refers to rtc.o(.bss) for .bss
    spi.o(i.HAL_SPI_MspDeInit) refers to stm32f2xx_hal_gpio.o(i.HAL_GPIO_DeInit) for HAL_GPIO_DeInit
    spi.o(i.HAL_SPI_MspInit) refers to rt_memclr_w.o(.text) for __aeabi_memclr4
    spi.o(i.HAL_SPI_MspInit) refers to stm32f2xx_hal_gpio.o(i.HAL_GPIO_Init) for HAL_GPIO_Init
    spi.o(i.MX_SPI2_Init) refers to stm32f2xx_hal_spi.o(i.HAL_SPI_Init) for HAL_SPI_Init
    spi.o(i.MX_SPI2_Init) refers to main.o(i.Error_Handler) for Error_Handler
    spi.o(i.MX_SPI2_Init) refers to spi.o(.bss) for .bss
    spi.o(i.SpiFlashEraseSector) refers to spi.o(i.SpiFlashWriteEnable) for SpiFlashWriteEnable
    spi.o(i.SpiFlashEraseSector) refers to spi.o(i.SpiFlashWaitBusy) for SpiFlashWaitBusy
    spi.o(i.SpiFlashEraseSector) refers to stm32f2xx_hal_gpio.o(i.HAL_GPIO_WritePin) for HAL_GPIO_WritePin
    spi.o(i.SpiFlashEraseSector) refers to spi.o(i.SpiReadWriteByte) for SpiReadWriteByte
    spi.o(i.SpiFlashEraseSector) refers to spi.o(i.SpiFlashSendAddr) for SpiFlashSendAddr
    spi.o(i.SpiFlashRead) refers to stm32f2xx_hal_gpio.o(i.HAL_GPIO_WritePin) for HAL_GPIO_WritePin
    spi.o(i.SpiFlashRead) refers to spi.o(i.SpiReadWriteByte) for SpiReadWriteByte
    spi.o(i.SpiFlashRead) refers to spi.o(i.SpiFlashSendAddr) for SpiFlashSendAddr
    spi.o(i.SpiFlashReadID) refers to stm32f2xx_hal_gpio.o(i.HAL_GPIO_WritePin) for HAL_GPIO_WritePin
    spi.o(i.SpiFlashReadID) refers to spi.o(i.SpiReadWriteByte) for SpiReadWriteByte
    spi.o(i.SpiFlashReadID) refers to stm32f2xx_hal.o(i.HAL_Delay) for HAL_Delay
    spi.o(i.SpiFlashReadOffset) refers to spi.o(i.SpiFlashRead) for SpiFlashRead
    spi.o(i.SpiFlashReadOffset) refers to spi.o(.data) for .data
    spi.o(i.SpiFlashReadSR) refers to stm32f2xx_hal_gpio.o(i.HAL_GPIO_WritePin) for HAL_GPIO_WritePin
    spi.o(i.SpiFlashReadSR) refers to spi.o(i.SpiReadWriteByte) for SpiReadWriteByte
    spi.o(i.SpiFlashSendAddr) refers to spi.o(i.SpiReadWriteByte) for SpiReadWriteByte
    spi.o(i.SpiFlashSetOffset) refers to spi.o(i.SpiFlashWrite) for SpiFlashWrite
    spi.o(i.SpiFlashSetOffset) refers to spi.o(.data) for .data
    spi.o(i.SpiFlashWaitBusy) refers to spi.o(i.SpiFlashReadSR) for SpiFlashReadSR
    spi.o(i.SpiFlashWrite) refers to spi.o(i.SpiFlashEraseSector) for SpiFlashEraseSector
    spi.o(i.SpiFlashWrite) refers to spi.o(i.SpiFlashWriteEnable) for SpiFlashWriteEnable
    spi.o(i.SpiFlashWrite) refers to stm32f2xx_hal_gpio.o(i.HAL_GPIO_WritePin) for HAL_GPIO_WritePin
    spi.o(i.SpiFlashWrite) refers to spi.o(i.SpiReadWriteByte) for SpiReadWriteByte
    spi.o(i.SpiFlashWrite) refers to spi.o(i.SpiFlashSendAddr) for SpiFlashSendAddr
    spi.o(i.SpiFlashWrite) refers to spi.o(i.SpiFlashWaitBusy) for SpiFlashWaitBusy
    spi.o(i.SpiFlashWriteEnable) refers to stm32f2xx_hal_gpio.o(i.HAL_GPIO_WritePin) for HAL_GPIO_WritePin
    spi.o(i.SpiFlashWriteEnable) refers to spi.o(i.SpiReadWriteByte) for SpiReadWriteByte
    spi.o(i.SpiReadWriteByte) refers to stm32f2xx_hal_spi.o(i.HAL_SPI_TransmitReceive) for HAL_SPI_TransmitReceive
    spi.o(i.SpiReadWriteByte) refers to spi.o(.bss) for .bss
    tim.o(i.HAL_TIM_Base_MspDeInit) refers to stm32f2xx_hal_cortex.o(i.HAL_NVIC_DisableIRQ) for HAL_NVIC_DisableIRQ
    tim.o(i.HAL_TIM_Base_MspInit) refers to stm32f2xx_hal_cortex.o(i.HAL_NVIC_SetPriority) for HAL_NVIC_SetPriority
    tim.o(i.HAL_TIM_Base_MspInit) refers to stm32f2xx_hal_cortex.o(i.HAL_NVIC_EnableIRQ) for HAL_NVIC_EnableIRQ
    tim.o(i.HAL_TIM_MspPostInit) refers to rt_memclr_w.o(.text) for __aeabi_memclr4
    tim.o(i.HAL_TIM_MspPostInit) refers to stm32f2xx_hal_gpio.o(i.HAL_GPIO_Init) for HAL_GPIO_Init
    tim.o(i.MX_TIM4_Init) refers to rt_memclr_w.o(.text) for __aeabi_memclr4
    tim.o(i.MX_TIM4_Init) refers to stm32f2xx_hal_tim.o(i.HAL_TIM_PWM_Init) for HAL_TIM_PWM_Init
    tim.o(i.MX_TIM4_Init) refers to main.o(i.Error_Handler) for Error_Handler
    tim.o(i.MX_TIM4_Init) refers to stm32f2xx_hal_tim_ex.o(i.HAL_TIMEx_MasterConfigSynchronization) for HAL_TIMEx_MasterConfigSynchronization
    tim.o(i.MX_TIM4_Init) refers to stm32f2xx_hal_tim.o(i.HAL_TIM_PWM_ConfigChannel) for HAL_TIM_PWM_ConfigChannel
    tim.o(i.MX_TIM4_Init) refers to tim.o(i.HAL_TIM_MspPostInit) for HAL_TIM_MspPostInit
    tim.o(i.MX_TIM4_Init) refers to tim.o(.bss) for .bss
    tim.o(i.MX_TIM6_Init) refers to stm32f2xx_hal_tim.o(i.HAL_TIM_Base_Init) for HAL_TIM_Base_Init
    tim.o(i.MX_TIM6_Init) refers to main.o(i.Error_Handler) for Error_Handler
    tim.o(i.MX_TIM6_Init) refers to stm32f2xx_hal_tim_ex.o(i.HAL_TIMEx_MasterConfigSynchronization) for HAL_TIMEx_MasterConfigSynchronization
    tim.o(i.MX_TIM6_Init) refers to stm32f2xx_hal_tim.o(i.HAL_TIM_Base_Start_IT) for HAL_TIM_Base_Start_IT
    tim.o(i.MX_TIM6_Init) refers to tim.o(.bss) for .bss
    tim.o(i.MX_TIM7_Init) refers to stm32f2xx_hal_tim.o(i.HAL_TIM_Base_Init) for HAL_TIM_Base_Init
    tim.o(i.MX_TIM7_Init) refers to main.o(i.Error_Handler) for Error_Handler
    tim.o(i.MX_TIM7_Init) refers to stm32f2xx_hal_tim_ex.o(i.HAL_TIMEx_MasterConfigSynchronization) for HAL_TIMEx_MasterConfigSynchronization
    tim.o(i.MX_TIM7_Init) refers to tim.o(.bss) for .bss
    usart.o(i.AdcSetSpeed) refers to fflt_clz.o(x$fpl$ffltu) for __aeabi_ui2f
    usart.o(i.AdcSetSpeed) refers to fdiv.o(x$fpl$fdiv) for __aeabi_fdiv
    usart.o(i.AdcSetSpeed) refers to faddsub_clz.o(x$fpl$fsub) for __aeabi_fsub
    usart.o(i.AdcSetSpeed) refers to fmul.o(x$fpl$fmul) for __aeabi_fmul
    usart.o(i.AdcSetSpeed) refers to ffix.o(x$fpl$ffix) for __aeabi_f2iz
    usart.o(i.AdcSetSpeed) refers to adc.o(.bss) for sysAdcValue
    usart.o(i.AdcSetSpeed) refers to usart.o(.data) for .data
    usart.o(i.AdcSetSpeed) refers to usart.o(.bss) for .bss
    usart.o(i.AddHistorySampleDateFloat) refers to usart.o(i.UsartSetTxBuf) for UsartSetTxBuf
    usart.o(i.AddHistorySampleDateFloatTwice) refers to usart.o(i.UsartSetTxBuf) for UsartSetTxBuf
    usart.o(i.BatteryDealt) refers to usart.o(i.MakeCrcModbus) for MakeCrcModbus
    usart.o(i.BatteryDealt) refers to usart.o(.data) for .data
    usart.o(i.BatteryDealt) refers to usart.o(.bss) for .bss
    usart.o(i.BatteryGetData) refers to usart.o(i.MakeCrcModbus) for MakeCrcModbus
    usart.o(i.BatteryGetData) refers to stm32f2xx_hal_gpio.o(i.HAL_GPIO_WritePin) for HAL_GPIO_WritePin
    usart.o(i.BatteryGetData) refers to stm32f2xx_hal_uart.o(i.HAL_UART_Transmit_IT) for HAL_UART_Transmit_IT
    usart.o(i.BatteryGetData) refers to usart.o(.data) for .data
    usart.o(i.BatteryGetData) refers to usart.o(.bss) for .bss
    usart.o(i.BatteryUpDate) refers to _printf_percent.o(.ARM.Collect$$_printf_percent$$00000000) for _printf_percent
    usart.o(i.BatteryUpDate) refers to _printf_d.o(.ARM.Collect$$_printf_percent$$00000009) for _printf_d
    usart.o(i.BatteryUpDate) refers to _printf_dec.o(.text) for _printf_int_dec
    usart.o(i.BatteryUpDate) refers to usart.o(i.ChangeIconFrame) for ChangeIconFrame
    usart.o(i.BatteryUpDate) refers to noretval__2sprintf.o(.text) for __2sprintf
    usart.o(i.BatteryUpDate) refers to strlen.o(.text) for strlen
    usart.o(i.BatteryUpDate) refers to usart.o(i.UsartSetTxBuf) for UsartSetTxBuf
    usart.o(i.BatteryUpDate) refers to usart.o(.bss) for .bss
    usart.o(i.BubbleTimer) refers to usart.o(i.SetCtrlVisable) for SetCtrlVisable
    usart.o(i.BubbleTimer) refers to stm32f2xx_hal_gpio.o(i.HAL_GPIO_WritePin) for HAL_GPIO_WritePin
    usart.o(i.BubbleTimer) refers to usart.o(i.ChangeIconFrame) for ChangeIconFrame
    usart.o(i.BubbleTimer) refers to usart.o(.bss) for .bss
    usart.o(i.BubbleTimer) refers to usart.o(.data) for .data
    usart.o(i.BubbleTimer) refers to gpio.o(.data) for rgbLed
    usart.o(i.ChangeCurveRange) refers to usart.o(i.UsartSetTxBuf) for UsartSetTxBuf
    usart.o(i.ChangeIconFrame) refers to usart.o(i.UsartSetTxBuf) for UsartSetTxBuf
    usart.o(i.ChangePSWTxt) refers to usart.o(i.SetCtrlVisable) for SetCtrlVisable
    usart.o(i.ChangePSWTxt) refers to usart.o(i.ClearTxtContent) for ClearTxtContent
    usart.o(i.ChangePSWTxt) refers to usart.o(i.ChangeScreen) for ChangeScreen
    usart.o(i.ChangePSWTxt) refers to usart.o(.data) for .data
    usart.o(i.ChangePSWTxt) refers to usart.o(.bss) for .bss
    usart.o(i.ChangeScreen) refers to usart.o(i.UsartSetTxBuf) for UsartSetTxBuf
    usart.o(i.ChangeSelectorIndex) refers to usart.o(i.UsartSetTxBuf) for UsartSetTxBuf
    usart.o(i.ChangeSetSpeed) refers to usart.o(i.ChangeTxtValue) for ChangeTxtValue
    usart.o(i.ChangeSetSpeed) refers to usart.o(.bss) for .bss
    usart.o(i.ChangeSetTemp) refers to faddsub_clz.o(x$fpl$fadd) for __aeabi_fadd
    usart.o(i.ChangeSetTemp) refers to faddsub_clz.o(x$fpl$fsub) for __aeabi_fsub
    usart.o(i.ChangeSetTemp) refers to usart.o(i.ChangeTxtValue) for ChangeTxtValue
    usart.o(i.ChangeSetTemp) refers to usart.o(.bss) for .bss
    usart.o(i.ChangeTxt) refers to usart.o(i.UsartSetTxBuf) for UsartSetTxBuf
    usart.o(i.ChangeTxtValue) refers to _printf_percent.o(.ARM.Collect$$_printf_percent$$00000000) for _printf_percent
    usart.o(i.ChangeTxtValue) refers to _printf_f.o(.ARM.Collect$$_printf_percent$$00000003) for _printf_f
    usart.o(i.ChangeTxtValue) refers to printf1.o(x$fpl$printf1) for _printf_fp_dec
    usart.o(i.ChangeTxtValue) refers to _printf_d.o(.ARM.Collect$$_printf_percent$$00000009) for _printf_d
    usart.o(i.ChangeTxtValue) refers to _printf_dec.o(.text) for _printf_int_dec
    usart.o(i.ChangeTxtValue) refers to f2d.o(x$fpl$f2d) for __aeabi_f2d
    usart.o(i.ChangeTxtValue) refers to noretval__2sprintf.o(.text) for __2sprintf
    usart.o(i.ChangeTxtValue) refers to strlen.o(.text) for strlen
    usart.o(i.ChangeTxtValue) refers to usart.o(i.UsartSetTxBuf) for UsartSetTxBuf
    usart.o(i.ClearTxtContent) refers to usart.o(i.UsartSetTxBuf) for UsartSetTxBuf
    usart.o(i.FLowGetData) refers to usart.o(i.FlowGetMeasure) for FlowGetMeasure
    usart.o(i.FLowGetData) refers to usart.o(.data) for .data
    usart.o(i.FlowDealt) refers to _printf_percent.o(.ARM.Collect$$_printf_percent$$00000000) for _printf_percent
    usart.o(i.FlowDealt) refers to _printf_d.o(.ARM.Collect$$_printf_percent$$00000009) for _printf_d
    usart.o(i.FlowDealt) refers to _printf_dec.o(.text) for _printf_int_dec
    usart.o(i.FlowDealt) refers to _printf_f.o(.ARM.Collect$$_printf_percent$$00000003) for _printf_f
    usart.o(i.FlowDealt) refers to printf1.o(x$fpl$printf1) for _printf_fp_dec
    usart.o(i.FlowDealt) refers to usart.o(i.MakeCrcFlow) for MakeCrcFlow
    usart.o(i.FlowDealt) refers to noretval__2sprintf.o(.text) for __2sprintf
    usart.o(i.FlowDealt) refers to fflt_clz.o(x$fpl$ffltu) for __aeabi_ui2f
    usart.o(i.FlowDealt) refers to fdiv.o(x$fpl$fdiv) for __aeabi_fdiv
    usart.o(i.FlowDealt) refers to f2d.o(x$fpl$f2d) for __aeabi_f2d
    usart.o(i.FlowDealt) refers to usart.o(i.ChangeIconFrame) for ChangeIconFrame
    usart.o(i.FlowDealt) refers to usart.o(i.SetCtrlVisable) for SetCtrlVisable
    usart.o(i.FlowDealt) refers to usart.o(i.FlowSetBuble) for FlowSetBuble
    usart.o(i.FlowDealt) refers to strlen.o(.text) for strlen
    usart.o(i.FlowDealt) refers to usart.o(i.UsartSetTxBuf) for UsartSetTxBuf
    usart.o(i.FlowDealt) refers to usart.o(.data) for .data
    usart.o(i.FlowDealt) refers to usart.o(.bss) for .bss
    usart.o(i.FlowGetId) refers to usart.o(i.MakeCrcFlow) for MakeCrcFlow
    usart.o(i.FlowGetId) refers to stm32f2xx_hal_gpio.o(i.HAL_GPIO_WritePin) for HAL_GPIO_WritePin
    usart.o(i.FlowGetId) refers to stm32f2xx_hal_uart.o(i.HAL_UART_Transmit_IT) for HAL_UART_Transmit_IT
    usart.o(i.FlowGetId) refers to usart.o(.bss) for .bss
    usart.o(i.FlowGetId) refers to usart.o(.data) for .data
    usart.o(i.FlowGetMeasure) refers to usart.o(i.MakeCrcFlow) for MakeCrcFlow
    usart.o(i.FlowGetMeasure) refers to stm32f2xx_hal_gpio.o(i.HAL_GPIO_WritePin) for HAL_GPIO_WritePin
    usart.o(i.FlowGetMeasure) refers to stm32f2xx_hal_uart.o(i.HAL_UART_Transmit_IT) for HAL_UART_Transmit_IT
    usart.o(i.FlowGetMeasure) refers to usart.o(.bss) for .bss
    usart.o(i.FlowGetMeasure) refers to usart.o(.data) for .data
    usart.o(i.FlowSetBuble) refers to _printf_percent.o(.ARM.Collect$$_printf_percent$$00000000) for _printf_percent
    usart.o(i.FlowSetBuble) refers to _printf_f.o(.ARM.Collect$$_printf_percent$$00000003) for _printf_f
    usart.o(i.FlowSetBuble) refers to printf1.o(x$fpl$printf1) for _printf_fp_dec
    usart.o(i.FlowSetBuble) refers to f2d.o(x$fpl$f2d) for __aeabi_f2d
    usart.o(i.FlowSetBuble) refers to noretval__2sprintf.o(.text) for __2sprintf
    usart.o(i.FlowSetBuble) refers to strlen.o(.text) for strlen
    usart.o(i.FlowSetBuble) refers to usart.o(i.UsartSetTxBuf) for UsartSetTxBuf
    usart.o(i.FlowSetBuble) refers to usart.o(.bss) for .bss
    usart.o(i.GetRTCFromHMI) refers to usart.o(i.UsartSetTxBuf) for UsartSetTxBuf
    usart.o(i.HAL_TIM_PeriodElapsedCallback) refers to stm32f2xx_hal_dma.o(i.HAL_DMA_Abort) for HAL_DMA_Abort
    usart.o(i.HAL_TIM_PeriodElapsedCallback) refers to stm32f2xx_hal_uart.o(i.HAL_UARTEx_ReceiveToIdle_DMA) for HAL_UARTEx_ReceiveToIdle_DMA
    usart.o(i.HAL_TIM_PeriodElapsedCallback) refers to usart.o(.bss) for .bss
    usart.o(i.HAL_UARTEx_RxEventCallback) refers to stm32f2xx_hal_uart.o(i.HAL_UARTEx_ReceiveToIdle_DMA) for HAL_UARTEx_ReceiveToIdle_DMA
    usart.o(i.HAL_UARTEx_RxEventCallback) refers to stm32f2xx_hal_uart.o(i.HAL_UARTEx_ReceiveToIdle_IT) for HAL_UARTEx_ReceiveToIdle_IT
    usart.o(i.HAL_UARTEx_RxEventCallback) refers to usart.o(.bss) for .bss
    usart.o(i.HAL_UARTEx_RxEventCallback) refers to usart.o(.data) for .data
    usart.o(i.HAL_UART_ErrorCallback) refers to stm32f2xx_hal_uart.o(i.HAL_UARTEx_ReceiveToIdle_DMA) for HAL_UARTEx_ReceiveToIdle_DMA
    usart.o(i.HAL_UART_ErrorCallback) refers to usart.o(.bss) for .bss
    usart.o(i.HAL_UART_MspDeInit) refers to stm32f2xx_hal_gpio.o(i.HAL_GPIO_DeInit) for HAL_GPIO_DeInit
    usart.o(i.HAL_UART_MspDeInit) refers to stm32f2xx_hal_dma.o(i.HAL_DMA_DeInit) for HAL_DMA_DeInit
    usart.o(i.HAL_UART_MspDeInit) refers to stm32f2xx_hal_cortex.o(i.HAL_NVIC_DisableIRQ) for HAL_NVIC_DisableIRQ
    usart.o(i.HAL_UART_MspInit) refers to rt_memclr_w.o(.text) for __aeabi_memclr4
    usart.o(i.HAL_UART_MspInit) refers to stm32f2xx_hal_gpio.o(i.HAL_GPIO_Init) for HAL_GPIO_Init
    usart.o(i.HAL_UART_MspInit) refers to stm32f2xx_hal_cortex.o(i.HAL_NVIC_SetPriority) for HAL_NVIC_SetPriority
    usart.o(i.HAL_UART_MspInit) refers to stm32f2xx_hal_cortex.o(i.HAL_NVIC_EnableIRQ) for HAL_NVIC_EnableIRQ
    usart.o(i.HAL_UART_MspInit) refers to stm32f2xx_hal_dma.o(i.HAL_DMA_Init) for HAL_DMA_Init
    usart.o(i.HAL_UART_MspInit) refers to main.o(i.Error_Handler) for Error_Handler
    usart.o(i.HAL_UART_MspInit) refers to usart.o(.bss) for .bss
    usart.o(i.HAL_UART_TxCpltCallback) refers to stm32f2xx_hal_gpio.o(i.HAL_GPIO_WritePin) for HAL_GPIO_WritePin
    usart.o(i.HAL_UART_TxCpltCallback) refers to stm32f2xx_hal_uart.o(i.HAL_UARTEx_ReceiveToIdle_IT) for HAL_UARTEx_ReceiveToIdle_IT
    usart.o(i.HAL_UART_TxCpltCallback) refers to usart.o(.data) for .data
    usart.o(i.HAL_UART_TxCpltCallback) refers to usart.o(.bss) for .bss
    usart.o(i.HmiAdjustDected) refers to usart.o(i.ChangeSetSpeed) for ChangeSetSpeed
    usart.o(i.HmiAdjustDected) refers to usart.o(i.ChangeSetTemp) for ChangeSetTemp
    usart.o(i.HmiAdjustDected) refers to tim.o(.bss) for htim7
    usart.o(i.HmiAdjustDected) refers to usart.o(.bss) for .bss
    usart.o(i.HmiCmdDealt) refers to rtc.o(i.RTCSetDateAndTime) for RTCSetDateAndTime
    usart.o(i.HmiCmdDealt) refers to usart.o(i.ChangeIconFrame) for ChangeIconFrame
    usart.o(i.HmiCmdDealt) refers to stm32f2xx_hal_tim.o(i.HAL_TIM_Base_Start) for HAL_TIM_Base_Start
    usart.o(i.HmiCmdDealt) refers to stm32f2xx_hal_tim.o(i.HAL_TIM_Base_Stop) for HAL_TIM_Base_Stop
    usart.o(i.HmiCmdDealt) refers to usart.o(i.ChangeSetSpeed) for ChangeSetSpeed
    usart.o(i.HmiCmdDealt) refers to usart.o(i.ChangeSetTemp) for ChangeSetTemp
    usart.o(i.HmiCmdDealt) refers to rtc.o(i.RtcSetDate) for RtcSetDate
    usart.o(i.HmiCmdDealt) refers to rtc.o(i.RTCSetTime) for RTCSetTime
    usart.o(i.HmiCmdDealt) refers to usart.o(i.SetRTCToHmi) for SetRTCToHmi
    usart.o(i.HmiCmdDealt) refers to usart.o(i.ClearTxtContent) for ClearTxtContent
    usart.o(i.HmiCmdDealt) refers to usart.o(i.SetCtrlVisable) for SetCtrlVisable
    usart.o(i.HmiCmdDealt) refers to usart.o(i.ChangePSWTxt) for ChangePSWTxt
    usart.o(i.HmiCmdDealt) refers to usart.o(i.ChangeSelectorIndex) for ChangeSelectorIndex
    usart.o(i.HmiCmdDealt) refers to usart.o(.bss) for .bss
    usart.o(i.HmiCmdDealt) refers to usart.o(.data) for .data
    usart.o(i.HmiCmdDealt) refers to spi.o(.data) for offsetPre1
    usart.o(i.HmiCmdDealt) refers to tim.o(.bss) for htim7
    usart.o(i.HmiWorkTimerRefresh) refers to usart.o(i.UsartSetTxBuf) for UsartSetTxBuf
    usart.o(i.HmiWorkTimerRefresh) refers to usart.o(.bss) for .bss
    usart.o(i.IBPCmdAdd) refers to usart.o(.bss) for .bss
    usart.o(i.IBPCmdSend) refers to usart.o(i.IBPChkSum) for IBPChkSum
    usart.o(i.IBPCmdSend) refers to stm32f2xx_hal_uart.o(i.HAL_UART_Transmit_DMA) for HAL_UART_Transmit_DMA
    usart.o(i.IBPCmdSend) refers to usart.o(.bss) for .bss
    usart.o(i.IBPCmdSend) refers to usart.o(.data) for .data
    usart.o(i.IBPDataAnalysis) refers to _printf_percent.o(.ARM.Collect$$_printf_percent$$00000000) for _printf_percent
    usart.o(i.IBPDataAnalysis) refers to _printf_d.o(.ARM.Collect$$_printf_percent$$00000009) for _printf_d
    usart.o(i.IBPDataAnalysis) refers to _printf_dec.o(.text) for _printf_int_dec
    usart.o(i.IBPDataAnalysis) refers to _printf_pad.o(.text) for _printf_pre_padding
    usart.o(i.IBPDataAnalysis) refers to _printf_x.o(.ARM.Collect$$_printf_percent$$0000000C) for _printf_x
    usart.o(i.IBPDataAnalysis) refers to _printf_hex_int.o(.text) for _printf_longlong_hex
    usart.o(i.IBPDataAnalysis) refers to usart.o(i.IBPChkSum) for IBPChkSum
    usart.o(i.IBPDataAnalysis) refers to noretval__2sprintf.o(.text) for __2sprintf
    usart.o(i.IBPDataAnalysis) refers to strlen.o(.text) for strlen
    usart.o(i.IBPDataAnalysis) refers to usart.o(i.UsartSetTxBuf) for UsartSetTxBuf
    usart.o(i.IBPDataAnalysis) refers to stm32f2xx_hal_uart.o(i.HAL_UART_Transmit_DMA) for HAL_UART_Transmit_DMA
    usart.o(i.IBPDataAnalysis) refers to fflt_clz.o(x$fpl$ffltu) for __aeabi_ui2f
    usart.o(i.IBPDataAnalysis) refers to fdiv.o(x$fpl$fdiv) for __aeabi_fdiv
    usart.o(i.IBPDataAnalysis) refers to faddsub_clz.o(x$fpl$fsub) for __aeabi_fsub
    usart.o(i.IBPDataAnalysis) refers to usart.o(.bss) for .bss
    usart.o(i.IBPDataAnalysis) refers to usart.o(.data) for .data
    usart.o(i.MX_UART4_Init) refers to stm32f2xx_hal_uart.o(i.HAL_UART_Init) for HAL_UART_Init
    usart.o(i.MX_UART4_Init) refers to main.o(i.Error_Handler) for Error_Handler
    usart.o(i.MX_UART4_Init) refers to usart.o(.bss) for .bss
    usart.o(i.MX_UART5_Init) refers to stm32f2xx_hal_uart.o(i.HAL_UART_Init) for HAL_UART_Init
    usart.o(i.MX_UART5_Init) refers to main.o(i.Error_Handler) for Error_Handler
    usart.o(i.MX_UART5_Init) refers to usart.o(.bss) for .bss
    usart.o(i.MX_USART1_UART_Init) refers to stm32f2xx_hal_uart.o(i.HAL_UART_Init) for HAL_UART_Init
    usart.o(i.MX_USART1_UART_Init) refers to main.o(i.Error_Handler) for Error_Handler
    usart.o(i.MX_USART1_UART_Init) refers to stm32f2xx_hal_uart.o(i.HAL_UARTEx_ReceiveToIdle_DMA) for HAL_UARTEx_ReceiveToIdle_DMA
    usart.o(i.MX_USART1_UART_Init) refers to usart.o(.bss) for .bss
    usart.o(i.MX_USART2_UART_Init) refers to stm32f2xx_hal_uart.o(i.HAL_UART_Init) for HAL_UART_Init
    usart.o(i.MX_USART2_UART_Init) refers to main.o(i.Error_Handler) for Error_Handler
    usart.o(i.MX_USART2_UART_Init) refers to usart.o(.bss) for .bss
    usart.o(i.MX_USART3_UART_Init) refers to stm32f2xx_hal_uart.o(i.HAL_UART_Init) for HAL_UART_Init
    usart.o(i.MX_USART3_UART_Init) refers to main.o(i.Error_Handler) for Error_Handler
    usart.o(i.MX_USART3_UART_Init) refers to stm32f2xx_hal_uart.o(i.HAL_UARTEx_ReceiveToIdle_IT) for HAL_UARTEx_ReceiveToIdle_IT
    usart.o(i.MX_USART3_UART_Init) refers to usart.o(.bss) for .bss
    usart.o(i.SetCtrlVisable) refers to usart.o(i.UsartSetTxBuf) for UsartSetTxBuf
    usart.o(i.SetRTCToHmi) refers to usart.o(i.BIN2BCD) for BIN2BCD
    usart.o(i.SetRTCToHmi) refers to usart.o(i.UsartSetTxBuf) for UsartSetTxBuf
    usart.o(i.SetRTCToHmi) refers to usart.o(.bss) for .bss
    usart.o(i.SetScreenCurveRange) refers to usart.o(i.ChangeCurveRange) for ChangeCurveRange
    usart.o(i.SetScreenCurveRange) refers to usart.o(.data) for .data
    usart.o(i.UsartSendData) refers to stm32f2xx_hal_uart.o(i.HAL_UART_Transmit_IT) for HAL_UART_Transmit_IT
    usart.o(i.UsartSendData) refers to usart.o(.data) for .data
    usart.o(i.UsartSendData) refers to usart.o(.bss) for .bss
    usart.o(i.UsartSetTxBuf) refers to usart.o(.bss) for .bss
    stm32f2xx_it.o(i.DMA2_Stream2_IRQHandler) refers to stm32f2xx_hal_dma.o(i.HAL_DMA_IRQHandler) for HAL_DMA_IRQHandler
    stm32f2xx_it.o(i.DMA2_Stream2_IRQHandler) refers to usart.o(.bss) for hdma_usart1_rx
    stm32f2xx_it.o(i.DMA2_Stream7_IRQHandler) refers to stm32f2xx_hal_dma.o(i.HAL_DMA_IRQHandler) for HAL_DMA_IRQHandler
    stm32f2xx_it.o(i.DMA2_Stream7_IRQHandler) refers to usart.o(.bss) for hdma_usart1_tx
    stm32f2xx_it.o(i.SysTick_Handler) refers to stm32f2xx_hal.o(i.HAL_IncTick) for HAL_IncTick
    stm32f2xx_it.o(i.SysTick_Handler) refers to stm32f2xx_it.o(.data) for .data
    stm32f2xx_it.o(i.TIM6_DAC_IRQHandler) refers to stm32f2xx_hal_tim.o(i.HAL_TIM_IRQHandler) for HAL_TIM_IRQHandler
    stm32f2xx_it.o(i.TIM6_DAC_IRQHandler) refers to tim.o(.bss) for htim6
    stm32f2xx_it.o(i.UART4_IRQHandler) refers to stm32f2xx_hal_uart.o(i.HAL_UART_IRQHandler) for HAL_UART_IRQHandler
    stm32f2xx_it.o(i.UART4_IRQHandler) refers to usart.o(.bss) for huart4
    stm32f2xx_it.o(i.UART5_IRQHandler) refers to stm32f2xx_hal_uart.o(i.HAL_UART_IRQHandler) for HAL_UART_IRQHandler
    stm32f2xx_it.o(i.UART5_IRQHandler) refers to usart.o(.bss) for huart5
    stm32f2xx_it.o(i.USART1_IRQHandler) refers to stm32f2xx_hal_uart.o(i.HAL_UART_IRQHandler) for HAL_UART_IRQHandler
    stm32f2xx_it.o(i.USART1_IRQHandler) refers to usart.o(.bss) for huart1
    stm32f2xx_it.o(i.USART2_IRQHandler) refers to stm32f2xx_hal_uart.o(i.HAL_UART_IRQHandler) for HAL_UART_IRQHandler
    stm32f2xx_it.o(i.USART2_IRQHandler) refers to usart.o(.bss) for huart2
    stm32f2xx_it.o(i.USART3_IRQHandler) refers to stm32f2xx_hal_uart.o(i.HAL_UART_IRQHandler) for HAL_UART_IRQHandler
    stm32f2xx_it.o(i.USART3_IRQHandler) refers to usart.o(.bss) for huart3
    stm32f2xx_hal_adc.o(i.ADC_DMAConvCplt) refers to stm32f2xx_hal_adc.o(i.HAL_ADC_ErrorCallback) for HAL_ADC_ErrorCallback
    stm32f2xx_hal_adc.o(i.ADC_DMAConvCplt) refers to stm32f2xx_hal_adc.o(i.HAL_ADC_ConvCpltCallback) for HAL_ADC_ConvCpltCallback
    stm32f2xx_hal_adc.o(i.ADC_DMAError) refers to stm32f2xx_hal_adc.o(i.HAL_ADC_ErrorCallback) for HAL_ADC_ErrorCallback
    stm32f2xx_hal_adc.o(i.ADC_DMAHalfConvCplt) refers to stm32f2xx_hal_adc.o(i.HAL_ADC_ConvHalfCpltCallback) for HAL_ADC_ConvHalfCpltCallback
    stm32f2xx_hal_adc.o(i.HAL_ADC_ConfigChannel) refers to system_stm32f2xx.o(.data) for SystemCoreClock
    stm32f2xx_hal_adc.o(i.HAL_ADC_DeInit) refers to adc.o(i.HAL_ADC_MspDeInit) for HAL_ADC_MspDeInit
    stm32f2xx_hal_adc.o(i.HAL_ADC_IRQHandler) refers to stm32f2xx_hal_adc.o(i.HAL_ADC_ConvCpltCallback) for HAL_ADC_ConvCpltCallback
    stm32f2xx_hal_adc.o(i.HAL_ADC_IRQHandler) refers to stm32f2xx_hal_adc_ex.o(i.HAL_ADCEx_InjectedConvCpltCallback) for HAL_ADCEx_InjectedConvCpltCallback
    stm32f2xx_hal_adc.o(i.HAL_ADC_IRQHandler) refers to stm32f2xx_hal_adc.o(i.HAL_ADC_LevelOutOfWindowCallback) for HAL_ADC_LevelOutOfWindowCallback
    stm32f2xx_hal_adc.o(i.HAL_ADC_IRQHandler) refers to stm32f2xx_hal_adc.o(i.HAL_ADC_ErrorCallback) for HAL_ADC_ErrorCallback
    stm32f2xx_hal_adc.o(i.HAL_ADC_Init) refers to adc.o(i.HAL_ADC_MspInit) for HAL_ADC_MspInit
    stm32f2xx_hal_adc.o(i.HAL_ADC_Init) refers to stm32f2xx_hal_adc.o(i.ADC_Init) for ADC_Init
    stm32f2xx_hal_adc.o(i.HAL_ADC_PollForConversion) refers to stm32f2xx_hal.o(i.HAL_GetTick) for HAL_GetTick
    stm32f2xx_hal_adc.o(i.HAL_ADC_PollForEvent) refers to stm32f2xx_hal.o(i.HAL_GetTick) for HAL_GetTick
    stm32f2xx_hal_adc.o(i.HAL_ADC_Start) refers to system_stm32f2xx.o(.data) for SystemCoreClock
    stm32f2xx_hal_adc.o(i.HAL_ADC_Start_DMA) refers to stm32f2xx_hal_dma.o(i.HAL_DMA_Start_IT) for HAL_DMA_Start_IT
    stm32f2xx_hal_adc.o(i.HAL_ADC_Start_DMA) refers to system_stm32f2xx.o(.data) for SystemCoreClock
    stm32f2xx_hal_adc.o(i.HAL_ADC_Start_DMA) refers to stm32f2xx_hal_adc.o(i.ADC_DMAConvCplt) for ADC_DMAConvCplt
    stm32f2xx_hal_adc.o(i.HAL_ADC_Start_DMA) refers to stm32f2xx_hal_adc.o(i.ADC_DMAHalfConvCplt) for ADC_DMAHalfConvCplt
    stm32f2xx_hal_adc.o(i.HAL_ADC_Start_DMA) refers to stm32f2xx_hal_adc.o(i.ADC_DMAError) for ADC_DMAError
    stm32f2xx_hal_adc.o(i.HAL_ADC_Start_IT) refers to system_stm32f2xx.o(.data) for SystemCoreClock
    stm32f2xx_hal_adc.o(i.HAL_ADC_Stop_DMA) refers to stm32f2xx_hal_dma.o(i.HAL_DMA_Abort) for HAL_DMA_Abort
    stm32f2xx_hal_adc_ex.o(i.ADC_MultiModeDMAConvCplt) refers to stm32f2xx_hal_adc.o(i.HAL_ADC_ConvCpltCallback) for HAL_ADC_ConvCpltCallback
    stm32f2xx_hal_adc_ex.o(i.ADC_MultiModeDMAError) refers to stm32f2xx_hal_adc.o(i.HAL_ADC_ErrorCallback) for HAL_ADC_ErrorCallback
    stm32f2xx_hal_adc_ex.o(i.ADC_MultiModeDMAHalfConvCplt) refers to stm32f2xx_hal_adc.o(i.HAL_ADC_ConvHalfCpltCallback) for HAL_ADC_ConvHalfCpltCallback
    stm32f2xx_hal_adc_ex.o(i.HAL_ADCEx_InjectedPollForConversion) refers to stm32f2xx_hal.o(i.HAL_GetTick) for HAL_GetTick
    stm32f2xx_hal_adc_ex.o(i.HAL_ADCEx_InjectedStart) refers to system_stm32f2xx.o(.data) for SystemCoreClock
    stm32f2xx_hal_adc_ex.o(i.HAL_ADCEx_InjectedStart_IT) refers to system_stm32f2xx.o(.data) for SystemCoreClock
    stm32f2xx_hal_adc_ex.o(i.HAL_ADCEx_MultiModeStart_DMA) refers to stm32f2xx_hal_dma.o(i.HAL_DMA_Start_IT) for HAL_DMA_Start_IT
    stm32f2xx_hal_adc_ex.o(i.HAL_ADCEx_MultiModeStart_DMA) refers to system_stm32f2xx.o(.data) for SystemCoreClock
    stm32f2xx_hal_adc_ex.o(i.HAL_ADCEx_MultiModeStart_DMA) refers to stm32f2xx_hal_adc_ex.o(i.ADC_MultiModeDMAConvCplt) for ADC_MultiModeDMAConvCplt
    stm32f2xx_hal_adc_ex.o(i.HAL_ADCEx_MultiModeStart_DMA) refers to stm32f2xx_hal_adc_ex.o(i.ADC_MultiModeDMAHalfConvCplt) for ADC_MultiModeDMAHalfConvCplt
    stm32f2xx_hal_adc_ex.o(i.HAL_ADCEx_MultiModeStart_DMA) refers to stm32f2xx_hal_adc_ex.o(i.ADC_MultiModeDMAError) for ADC_MultiModeDMAError
    stm32f2xx_hal_adc_ex.o(i.HAL_ADCEx_MultiModeStop_DMA) refers to stm32f2xx_hal_dma.o(i.HAL_DMA_Abort) for HAL_DMA_Abort
    stm32f2xx_hal.o(i.HAL_DeInit) refers to stm32f2xx_hal.o(i.HAL_MspDeInit) for HAL_MspDeInit
    stm32f2xx_hal.o(i.HAL_Delay) refers to stm32f2xx_hal.o(i.HAL_GetTick) for HAL_GetTick
    stm32f2xx_hal.o(i.HAL_Delay) refers to stm32f2xx_hal.o(.data) for .data
    stm32f2xx_hal.o(i.HAL_GetTick) refers to stm32f2xx_hal.o(.data) for .data
    stm32f2xx_hal.o(i.HAL_GetTickFreq) refers to stm32f2xx_hal.o(.data) for .data
    stm32f2xx_hal.o(i.HAL_GetTickPrio) refers to stm32f2xx_hal.o(.data) for .data
    stm32f2xx_hal.o(i.HAL_IncTick) refers to stm32f2xx_hal.o(.data) for .data
    stm32f2xx_hal.o(i.HAL_Init) refers to stm32f2xx_hal_cortex.o(i.HAL_NVIC_SetPriorityGrouping) for HAL_NVIC_SetPriorityGrouping
    stm32f2xx_hal.o(i.HAL_Init) refers to stm32f2xx_hal.o(i.HAL_InitTick) for HAL_InitTick
    stm32f2xx_hal.o(i.HAL_Init) refers to stm32f2xx_hal_msp.o(i.HAL_MspInit) for HAL_MspInit
    stm32f2xx_hal.o(i.HAL_InitTick) refers to stm32f2xx_hal_cortex.o(i.HAL_SYSTICK_Config) for HAL_SYSTICK_Config
    stm32f2xx_hal.o(i.HAL_InitTick) refers to stm32f2xx_hal_cortex.o(i.HAL_NVIC_SetPriority) for HAL_NVIC_SetPriority
    stm32f2xx_hal.o(i.HAL_InitTick) refers to stm32f2xx_hal.o(.data) for .data
    stm32f2xx_hal.o(i.HAL_InitTick) refers to system_stm32f2xx.o(.data) for SystemCoreClock
    stm32f2xx_hal.o(i.HAL_SetTickFreq) refers to stm32f2xx_hal.o(i.HAL_InitTick) for HAL_InitTick
    stm32f2xx_hal.o(i.HAL_SetTickFreq) refers to stm32f2xx_hal.o(.data) for .data
    stm32f2xx_hal_rcc.o(i.HAL_RCC_ClockConfig) refers to stm32f2xx_hal.o(i.HAL_GetTick) for HAL_GetTick
    stm32f2xx_hal_rcc.o(i.HAL_RCC_ClockConfig) refers to stm32f2xx_hal_rcc.o(i.HAL_RCC_GetSysClockFreq) for HAL_RCC_GetSysClockFreq
    stm32f2xx_hal_rcc.o(i.HAL_RCC_ClockConfig) refers to stm32f2xx_hal.o(i.HAL_InitTick) for HAL_InitTick
    stm32f2xx_hal_rcc.o(i.HAL_RCC_ClockConfig) refers to system_stm32f2xx.o(.constdata) for AHBPrescTable
    stm32f2xx_hal_rcc.o(i.HAL_RCC_ClockConfig) refers to system_stm32f2xx.o(.data) for SystemCoreClock
    stm32f2xx_hal_rcc.o(i.HAL_RCC_ClockConfig) refers to stm32f2xx_hal.o(.data) for uwTickPrio
    stm32f2xx_hal_rcc.o(i.HAL_RCC_DeInit) refers to stm32f2xx_hal.o(i.HAL_GetTick) for HAL_GetTick
    stm32f2xx_hal_rcc.o(i.HAL_RCC_DeInit) refers to stm32f2xx_hal.o(i.HAL_InitTick) for HAL_InitTick
    stm32f2xx_hal_rcc.o(i.HAL_RCC_DeInit) refers to system_stm32f2xx.o(.data) for SystemCoreClock
    stm32f2xx_hal_rcc.o(i.HAL_RCC_DeInit) refers to stm32f2xx_hal.o(.data) for uwTickPrio
    stm32f2xx_hal_rcc.o(i.HAL_RCC_GetHCLKFreq) refers to system_stm32f2xx.o(.data) for SystemCoreClock
    stm32f2xx_hal_rcc.o(i.HAL_RCC_GetPCLK1Freq) refers to system_stm32f2xx.o(.data) for SystemCoreClock
    stm32f2xx_hal_rcc.o(i.HAL_RCC_GetPCLK1Freq) refers to system_stm32f2xx.o(.constdata) for APBPrescTable
    stm32f2xx_hal_rcc.o(i.HAL_RCC_GetPCLK2Freq) refers to system_stm32f2xx.o(.data) for SystemCoreClock
    stm32f2xx_hal_rcc.o(i.HAL_RCC_GetPCLK2Freq) refers to system_stm32f2xx.o(.constdata) for APBPrescTable
    stm32f2xx_hal_rcc.o(i.HAL_RCC_GetSysClockFreq) refers to lludivv7m.o(.text) for __aeabi_uldivmod
    stm32f2xx_hal_rcc.o(i.HAL_RCC_MCOConfig) refers to stm32f2xx_hal_gpio.o(i.HAL_GPIO_Init) for HAL_GPIO_Init
    stm32f2xx_hal_rcc.o(i.HAL_RCC_NMI_IRQHandler) refers to stm32f2xx_hal_rcc.o(i.HAL_RCC_CSSCallback) for HAL_RCC_CSSCallback
    stm32f2xx_hal_rcc.o(i.HAL_RCC_OscConfig) refers to stm32f2xx_hal.o(i.HAL_GetTick) for HAL_GetTick
    stm32f2xx_hal_rcc_ex.o(i.HAL_RCCEx_DisablePLLI2S) refers to stm32f2xx_hal.o(i.HAL_GetTick) for HAL_GetTick
    stm32f2xx_hal_rcc_ex.o(i.HAL_RCCEx_EnablePLLI2S) refers to stm32f2xx_hal.o(i.HAL_GetTick) for HAL_GetTick
    stm32f2xx_hal_rcc_ex.o(i.HAL_RCCEx_PeriphCLKConfig) refers to stm32f2xx_hal.o(i.HAL_GetTick) for HAL_GetTick
    stm32f2xx_hal_cortex.o(i.HAL_NVIC_SetPriority) refers to stm32f2xx_hal_cortex.o(i.__NVIC_SetPriority) for __NVIC_SetPriority
    stm32f2xx_hal_cortex.o(i.HAL_SYSTICK_Config) refers to stm32f2xx_hal_cortex.o(i.__NVIC_SetPriority) for __NVIC_SetPriority
    stm32f2xx_hal_cortex.o(i.HAL_SYSTICK_IRQHandler) refers to stm32f2xx_hal_cortex.o(i.HAL_SYSTICK_Callback) for HAL_SYSTICK_Callback
    stm32f2xx_hal_flash.o(i.FLASH_SetErrorCode) refers to stm32f2xx_hal_flash.o(.bss) for .bss
    stm32f2xx_hal_flash.o(i.FLASH_WaitForLastOperation) refers to stm32f2xx_hal.o(i.HAL_GetTick) for HAL_GetTick
    stm32f2xx_hal_flash.o(i.FLASH_WaitForLastOperation) refers to stm32f2xx_hal_flash.o(i.FLASH_SetErrorCode) for FLASH_SetErrorCode
    stm32f2xx_hal_flash.o(i.FLASH_WaitForLastOperation) refers to stm32f2xx_hal_flash.o(.bss) for .bss
    stm32f2xx_hal_flash.o(i.HAL_FLASH_GetError) refers to stm32f2xx_hal_flash.o(.bss) for .bss
    stm32f2xx_hal_flash.o(i.HAL_FLASH_IRQHandler) refers to stm32f2xx_hal_flash.o(i.FLASH_SetErrorCode) for FLASH_SetErrorCode
    stm32f2xx_hal_flash.o(i.HAL_FLASH_IRQHandler) refers to stm32f2xx_hal_flash.o(i.HAL_FLASH_OperationErrorCallback) for HAL_FLASH_OperationErrorCallback
    stm32f2xx_hal_flash.o(i.HAL_FLASH_IRQHandler) refers to stm32f2xx_hal_flash.o(i.HAL_FLASH_EndOfOperationCallback) for HAL_FLASH_EndOfOperationCallback
    stm32f2xx_hal_flash.o(i.HAL_FLASH_IRQHandler) refers to stm32f2xx_hal_flash_ex.o(i.FLASH_Erase_Sector) for FLASH_Erase_Sector
    stm32f2xx_hal_flash.o(i.HAL_FLASH_IRQHandler) refers to stm32f2xx_hal_flash_ex.o(i.FLASH_FlushCaches) for FLASH_FlushCaches
    stm32f2xx_hal_flash.o(i.HAL_FLASH_IRQHandler) refers to stm32f2xx_hal_flash.o(.bss) for .bss
    stm32f2xx_hal_flash.o(i.HAL_FLASH_OB_Launch) refers to stm32f2xx_hal_flash.o(i.FLASH_WaitForLastOperation) for FLASH_WaitForLastOperation
    stm32f2xx_hal_flash.o(i.HAL_FLASH_Program) refers to stm32f2xx_hal_flash.o(i.FLASH_WaitForLastOperation) for FLASH_WaitForLastOperation
    stm32f2xx_hal_flash.o(i.HAL_FLASH_Program) refers to stm32f2xx_hal_flash.o(i.FLASH_Program_DoubleWord) for FLASH_Program_DoubleWord
    stm32f2xx_hal_flash.o(i.HAL_FLASH_Program) refers to stm32f2xx_hal_flash.o(i.FLASH_Program_Byte) for FLASH_Program_Byte
    stm32f2xx_hal_flash.o(i.HAL_FLASH_Program) refers to stm32f2xx_hal_flash.o(i.FLASH_Program_HalfWord) for FLASH_Program_HalfWord
    stm32f2xx_hal_flash.o(i.HAL_FLASH_Program) refers to stm32f2xx_hal_flash.o(i.FLASH_Program_Word) for FLASH_Program_Word
    stm32f2xx_hal_flash.o(i.HAL_FLASH_Program) refers to stm32f2xx_hal_flash.o(.bss) for .bss
    stm32f2xx_hal_flash.o(i.HAL_FLASH_Program_IT) refers to stm32f2xx_hal_flash.o(i.FLASH_Program_DoubleWord) for FLASH_Program_DoubleWord
    stm32f2xx_hal_flash.o(i.HAL_FLASH_Program_IT) refers to stm32f2xx_hal_flash.o(i.FLASH_Program_Byte) for FLASH_Program_Byte
    stm32f2xx_hal_flash.o(i.HAL_FLASH_Program_IT) refers to stm32f2xx_hal_flash.o(i.FLASH_Program_HalfWord) for FLASH_Program_HalfWord
    stm32f2xx_hal_flash.o(i.HAL_FLASH_Program_IT) refers to stm32f2xx_hal_flash.o(i.FLASH_Program_Word) for FLASH_Program_Word
    stm32f2xx_hal_flash.o(i.HAL_FLASH_Program_IT) refers to stm32f2xx_hal_flash.o(.bss) for .bss
    stm32f2xx_hal_flash_ex.o(i.HAL_FLASHEx_Erase) refers to stm32f2xx_hal_flash.o(i.FLASH_WaitForLastOperation) for FLASH_WaitForLastOperation
    stm32f2xx_hal_flash_ex.o(i.HAL_FLASHEx_Erase) refers to stm32f2xx_hal_flash_ex.o(i.FLASH_MassErase) for FLASH_MassErase
    stm32f2xx_hal_flash_ex.o(i.HAL_FLASHEx_Erase) refers to stm32f2xx_hal_flash_ex.o(i.FLASH_Erase_Sector) for FLASH_Erase_Sector
    stm32f2xx_hal_flash_ex.o(i.HAL_FLASHEx_Erase) refers to stm32f2xx_hal_flash_ex.o(i.FLASH_FlushCaches) for FLASH_FlushCaches
    stm32f2xx_hal_flash_ex.o(i.HAL_FLASHEx_Erase) refers to stm32f2xx_hal_flash.o(.bss) for pFlash
    stm32f2xx_hal_flash_ex.o(i.HAL_FLASHEx_Erase_IT) refers to stm32f2xx_hal_flash_ex.o(i.FLASH_Erase_Sector) for FLASH_Erase_Sector
    stm32f2xx_hal_flash_ex.o(i.HAL_FLASHEx_Erase_IT) refers to stm32f2xx_hal_flash_ex.o(i.FLASH_MassErase) for FLASH_MassErase
    stm32f2xx_hal_flash_ex.o(i.HAL_FLASHEx_Erase_IT) refers to stm32f2xx_hal_flash.o(.bss) for pFlash
    stm32f2xx_hal_flash_ex.o(i.HAL_FLASHEx_OBProgram) refers to stm32f2xx_hal_flash.o(i.FLASH_WaitForLastOperation) for FLASH_WaitForLastOperation
    stm32f2xx_hal_flash_ex.o(i.HAL_FLASHEx_OBProgram) refers to stm32f2xx_hal_flash.o(.bss) for pFlash
    stm32f2xx_hal_pwr.o(i.HAL_PWR_PVD_IRQHandler) refers to stm32f2xx_hal_pwr.o(i.HAL_PWR_PVDCallback) for HAL_PWR_PVDCallback
    stm32f2xx_hal_pwr_ex.o(i.HAL_PWREx_DisableBkUpReg) refers to stm32f2xx_hal.o(i.HAL_GetTick) for HAL_GetTick
    stm32f2xx_hal_pwr_ex.o(i.HAL_PWREx_EnableBkUpReg) refers to stm32f2xx_hal.o(i.HAL_GetTick) for HAL_GetTick
    stm32f2xx_hal_gpio.o(i.HAL_GPIO_EXTI_IRQHandler) refers to stm32f2xx_hal_gpio.o(i.HAL_GPIO_EXTI_Callback) for HAL_GPIO_EXTI_Callback
    stm32f2xx_hal_dma.o(i.DMA_CalcBaseAndBitshift) refers to stm32f2xx_hal_dma.o(.constdata) for .constdata
    stm32f2xx_hal_dma.o(i.HAL_DMA_Abort) refers to stm32f2xx_hal.o(i.HAL_GetTick) for HAL_GetTick
    stm32f2xx_hal_dma.o(i.HAL_DMA_DeInit) refers to stm32f2xx_hal_dma.o(i.DMA_CalcBaseAndBitshift) for DMA_CalcBaseAndBitshift
    stm32f2xx_hal_dma.o(i.HAL_DMA_IRQHandler) refers to system_stm32f2xx.o(.data) for SystemCoreClock
    stm32f2xx_hal_dma.o(i.HAL_DMA_Init) refers to stm32f2xx_hal.o(i.HAL_GetTick) for HAL_GetTick
    stm32f2xx_hal_dma.o(i.HAL_DMA_Init) refers to stm32f2xx_hal_dma.o(i.DMA_CheckFifoParam) for DMA_CheckFifoParam
    stm32f2xx_hal_dma.o(i.HAL_DMA_Init) refers to stm32f2xx_hal_dma.o(i.DMA_CalcBaseAndBitshift) for DMA_CalcBaseAndBitshift
    stm32f2xx_hal_dma.o(i.HAL_DMA_PollForTransfer) refers to stm32f2xx_hal.o(i.HAL_GetTick) for HAL_GetTick
    stm32f2xx_hal_dma.o(i.HAL_DMA_PollForTransfer) refers to stm32f2xx_hal_dma.o(i.HAL_DMA_Abort) for HAL_DMA_Abort
    stm32f2xx_hal_dma.o(i.HAL_DMA_Start) refers to stm32f2xx_hal_dma.o(i.DMA_SetConfig) for DMA_SetConfig
    stm32f2xx_hal_dma.o(i.HAL_DMA_Start_IT) refers to stm32f2xx_hal_dma.o(i.DMA_SetConfig) for DMA_SetConfig
    stm32f2xx_hal_dma_ex.o(i.HAL_DMAEx_MultiBufferStart) refers to stm32f2xx_hal_dma_ex.o(i.DMA_MultiBufferSetConfig) for DMA_MultiBufferSetConfig
    stm32f2xx_hal_dma_ex.o(i.HAL_DMAEx_MultiBufferStart_IT) refers to stm32f2xx_hal_dma_ex.o(i.DMA_MultiBufferSetConfig) for DMA_MultiBufferSetConfig
    stm32f2xx_hal_iwdg.o(i.HAL_IWDG_Init) refers to stm32f2xx_hal.o(i.HAL_GetTick) for HAL_GetTick
    stm32f2xx_hal_rtc.o(i.HAL_RTC_AlarmIRQHandler) refers to stm32f2xx_hal_rtc.o(i.HAL_RTC_AlarmAEventCallback) for HAL_RTC_AlarmAEventCallback
    stm32f2xx_hal_rtc.o(i.HAL_RTC_AlarmIRQHandler) refers to stm32f2xx_hal_rtc_ex.o(i.HAL_RTCEx_AlarmBEventCallback) for HAL_RTCEx_AlarmBEventCallback
    stm32f2xx_hal_rtc.o(i.HAL_RTC_DeInit) refers to stm32f2xx_hal_rtc.o(i.RTC_EnterInitMode) for RTC_EnterInitMode
    stm32f2xx_hal_rtc.o(i.HAL_RTC_DeInit) refers to stm32f2xx_hal_rtc.o(i.RTC_ExitInitMode) for RTC_ExitInitMode
    stm32f2xx_hal_rtc.o(i.HAL_RTC_DeInit) refers to rtc.o(i.HAL_RTC_MspDeInit) for HAL_RTC_MspDeInit
    stm32f2xx_hal_rtc.o(i.HAL_RTC_DeactivateAlarm) refers to stm32f2xx_hal.o(i.HAL_GetTick) for HAL_GetTick
    stm32f2xx_hal_rtc.o(i.HAL_RTC_GetAlarm) refers to stm32f2xx_hal_rtc.o(i.RTC_Bcd2ToByte) for RTC_Bcd2ToByte
    stm32f2xx_hal_rtc.o(i.HAL_RTC_GetDate) refers to stm32f2xx_hal_rtc.o(i.RTC_Bcd2ToByte) for RTC_Bcd2ToByte
    stm32f2xx_hal_rtc.o(i.HAL_RTC_GetTime) refers to stm32f2xx_hal_rtc.o(i.RTC_Bcd2ToByte) for RTC_Bcd2ToByte
    stm32f2xx_hal_rtc.o(i.HAL_RTC_Init) refers to rtc.o(i.HAL_RTC_MspInit) for HAL_RTC_MspInit
    stm32f2xx_hal_rtc.o(i.HAL_RTC_Init) refers to stm32f2xx_hal_rtc.o(i.RTC_EnterInitMode) for RTC_EnterInitMode
    stm32f2xx_hal_rtc.o(i.HAL_RTC_Init) refers to stm32f2xx_hal_rtc.o(i.RTC_ExitInitMode) for RTC_ExitInitMode
    stm32f2xx_hal_rtc.o(i.HAL_RTC_PollForAlarmAEvent) refers to stm32f2xx_hal.o(i.HAL_GetTick) for HAL_GetTick
    stm32f2xx_hal_rtc.o(i.HAL_RTC_SetAlarm) refers to stm32f2xx_hal.o(i.HAL_GetTick) for HAL_GetTick
    stm32f2xx_hal_rtc.o(i.HAL_RTC_SetAlarm) refers to stm32f2xx_hal_rtc.o(i.RTC_ByteToBcd2) for RTC_ByteToBcd2
    stm32f2xx_hal_rtc.o(i.HAL_RTC_SetAlarm_IT) refers to stm32f2xx_hal_rtc.o(i.RTC_ByteToBcd2) for RTC_ByteToBcd2
    stm32f2xx_hal_rtc.o(i.HAL_RTC_SetAlarm_IT) refers to system_stm32f2xx.o(.data) for SystemCoreClock
    stm32f2xx_hal_rtc.o(i.HAL_RTC_SetDate) refers to stm32f2xx_hal_rtc.o(i.RTC_EnterInitMode) for RTC_EnterInitMode
    stm32f2xx_hal_rtc.o(i.HAL_RTC_SetDate) refers to stm32f2xx_hal_rtc.o(i.RTC_ByteToBcd2) for RTC_ByteToBcd2
    stm32f2xx_hal_rtc.o(i.HAL_RTC_SetDate) refers to stm32f2xx_hal_rtc.o(i.RTC_ExitInitMode) for RTC_ExitInitMode
    stm32f2xx_hal_rtc.o(i.HAL_RTC_SetTime) refers to stm32f2xx_hal_rtc.o(i.RTC_EnterInitMode) for RTC_EnterInitMode
    stm32f2xx_hal_rtc.o(i.HAL_RTC_SetTime) refers to stm32f2xx_hal_rtc.o(i.RTC_ByteToBcd2) for RTC_ByteToBcd2
    stm32f2xx_hal_rtc.o(i.HAL_RTC_SetTime) refers to stm32f2xx_hal_rtc.o(i.RTC_ExitInitMode) for RTC_ExitInitMode
    stm32f2xx_hal_rtc.o(i.HAL_RTC_WaitForSynchro) refers to stm32f2xx_hal.o(i.HAL_GetTick) for HAL_GetTick
    stm32f2xx_hal_rtc.o(i.RTC_EnterInitMode) refers to stm32f2xx_hal.o(i.HAL_GetTick) for HAL_GetTick
    stm32f2xx_hal_rtc.o(i.RTC_ExitInitMode) refers to stm32f2xx_hal_rtc.o(i.HAL_RTC_WaitForSynchro) for HAL_RTC_WaitForSynchro
    stm32f2xx_hal_rtc_ex.o(i.HAL_RTCEx_DeactivateCoarseCalib) refers to stm32f2xx_hal_rtc.o(i.RTC_EnterInitMode) for RTC_EnterInitMode
    stm32f2xx_hal_rtc_ex.o(i.HAL_RTCEx_DeactivateCoarseCalib) refers to stm32f2xx_hal_rtc.o(i.RTC_ExitInitMode) for RTC_ExitInitMode
    stm32f2xx_hal_rtc_ex.o(i.HAL_RTCEx_DeactivateRefClock) refers to stm32f2xx_hal_rtc.o(i.RTC_EnterInitMode) for RTC_EnterInitMode
    stm32f2xx_hal_rtc_ex.o(i.HAL_RTCEx_DeactivateRefClock) refers to stm32f2xx_hal_rtc.o(i.RTC_ExitInitMode) for RTC_ExitInitMode
    stm32f2xx_hal_rtc_ex.o(i.HAL_RTCEx_DeactivateWakeUpTimer) refers to stm32f2xx_hal.o(i.HAL_GetTick) for HAL_GetTick
    stm32f2xx_hal_rtc_ex.o(i.HAL_RTCEx_GetTimeStamp) refers to stm32f2xx_hal_rtc.o(i.RTC_Bcd2ToByte) for RTC_Bcd2ToByte
    stm32f2xx_hal_rtc_ex.o(i.HAL_RTCEx_PollForAlarmBEvent) refers to stm32f2xx_hal.o(i.HAL_GetTick) for HAL_GetTick
    stm32f2xx_hal_rtc_ex.o(i.HAL_RTCEx_PollForTamper1Event) refers to stm32f2xx_hal.o(i.HAL_GetTick) for HAL_GetTick
    stm32f2xx_hal_rtc_ex.o(i.HAL_RTCEx_PollForTimeStampEvent) refers to stm32f2xx_hal.o(i.HAL_GetTick) for HAL_GetTick
    stm32f2xx_hal_rtc_ex.o(i.HAL_RTCEx_PollForWakeUpTimerEvent) refers to stm32f2xx_hal.o(i.HAL_GetTick) for HAL_GetTick
    stm32f2xx_hal_rtc_ex.o(i.HAL_RTCEx_SetCoarseCalib) refers to stm32f2xx_hal_rtc.o(i.RTC_EnterInitMode) for RTC_EnterInitMode
    stm32f2xx_hal_rtc_ex.o(i.HAL_RTCEx_SetCoarseCalib) refers to stm32f2xx_hal_rtc.o(i.RTC_ExitInitMode) for RTC_ExitInitMode
    stm32f2xx_hal_rtc_ex.o(i.HAL_RTCEx_SetRefClock) refers to stm32f2xx_hal_rtc.o(i.RTC_EnterInitMode) for RTC_EnterInitMode
    stm32f2xx_hal_rtc_ex.o(i.HAL_RTCEx_SetRefClock) refers to stm32f2xx_hal_rtc.o(i.RTC_ExitInitMode) for RTC_ExitInitMode
    stm32f2xx_hal_rtc_ex.o(i.HAL_RTCEx_SetWakeUpTimer) refers to stm32f2xx_hal.o(i.HAL_GetTick) for HAL_GetTick
    stm32f2xx_hal_rtc_ex.o(i.HAL_RTCEx_SetWakeUpTimer_IT) refers to system_stm32f2xx.o(.data) for SystemCoreClock
    stm32f2xx_hal_rtc_ex.o(i.HAL_RTCEx_TamperTimeStampIRQHandler) refers to stm32f2xx_hal_rtc_ex.o(i.HAL_RTCEx_TimeStampEventCallback) for HAL_RTCEx_TimeStampEventCallback
    stm32f2xx_hal_rtc_ex.o(i.HAL_RTCEx_TamperTimeStampIRQHandler) refers to stm32f2xx_hal_rtc_ex.o(i.HAL_RTCEx_Tamper1EventCallback) for HAL_RTCEx_Tamper1EventCallback
    stm32f2xx_hal_rtc_ex.o(i.HAL_RTCEx_WakeUpTimerIRQHandler) refers to stm32f2xx_hal_rtc_ex.o(i.HAL_RTCEx_WakeUpTimerEventCallback) for HAL_RTCEx_WakeUpTimerEventCallback
    stm32f2xx_hal_spi.o(i.HAL_SPI_Abort) refers to stm32f2xx_hal_dma.o(i.HAL_DMA_Abort) for HAL_DMA_Abort
    stm32f2xx_hal_spi.o(i.HAL_SPI_Abort) refers to system_stm32f2xx.o(.data) for SystemCoreClock
    stm32f2xx_hal_spi.o(i.HAL_SPI_Abort) refers to stm32f2xx_hal_spi.o(i.SPI_AbortTx_ISR) for SPI_AbortTx_ISR
    stm32f2xx_hal_spi.o(i.HAL_SPI_Abort) refers to stm32f2xx_hal_spi.o(i.SPI_AbortRx_ISR) for SPI_AbortRx_ISR
    stm32f2xx_hal_spi.o(i.HAL_SPI_Abort_IT) refers to stm32f2xx_hal_dma.o(i.HAL_DMA_Abort_IT) for HAL_DMA_Abort_IT
    stm32f2xx_hal_spi.o(i.HAL_SPI_Abort_IT) refers to stm32f2xx_hal_spi.o(i.HAL_SPI_AbortCpltCallback) for HAL_SPI_AbortCpltCallback
    stm32f2xx_hal_spi.o(i.HAL_SPI_Abort_IT) refers to system_stm32f2xx.o(.data) for SystemCoreClock
    stm32f2xx_hal_spi.o(i.HAL_SPI_Abort_IT) refers to stm32f2xx_hal_spi.o(i.SPI_AbortTx_ISR) for SPI_AbortTx_ISR
    stm32f2xx_hal_spi.o(i.HAL_SPI_Abort_IT) refers to stm32f2xx_hal_spi.o(i.SPI_AbortRx_ISR) for SPI_AbortRx_ISR
    stm32f2xx_hal_spi.o(i.HAL_SPI_Abort_IT) refers to stm32f2xx_hal_spi.o(i.SPI_DMATxAbortCallback) for SPI_DMATxAbortCallback
    stm32f2xx_hal_spi.o(i.HAL_SPI_Abort_IT) refers to stm32f2xx_hal_spi.o(i.SPI_DMARxAbortCallback) for SPI_DMARxAbortCallback
    stm32f2xx_hal_spi.o(i.HAL_SPI_DMAStop) refers to stm32f2xx_hal_dma.o(i.HAL_DMA_Abort) for HAL_DMA_Abort
    stm32f2xx_hal_spi.o(i.HAL_SPI_DeInit) refers to spi.o(i.HAL_SPI_MspDeInit) for HAL_SPI_MspDeInit
    stm32f2xx_hal_spi.o(i.HAL_SPI_IRQHandler) refers to stm32f2xx_hal_dma.o(i.HAL_DMA_Abort_IT) for HAL_DMA_Abort_IT
    stm32f2xx_hal_spi.o(i.HAL_SPI_IRQHandler) refers to stm32f2xx_hal_spi.o(i.HAL_SPI_ErrorCallback) for HAL_SPI_ErrorCallback
    stm32f2xx_hal_spi.o(i.HAL_SPI_IRQHandler) refers to stm32f2xx_hal_spi.o(i.SPI_DMAAbortOnError) for SPI_DMAAbortOnError
    stm32f2xx_hal_spi.o(i.HAL_SPI_Init) refers to spi.o(i.HAL_SPI_MspInit) for HAL_SPI_MspInit
    stm32f2xx_hal_spi.o(i.HAL_SPI_Receive) refers to stm32f2xx_hal.o(i.HAL_GetTick) for HAL_GetTick
    stm32f2xx_hal_spi.o(i.HAL_SPI_Receive) refers to stm32f2xx_hal_spi.o(i.HAL_SPI_TransmitReceive) for HAL_SPI_TransmitReceive
    stm32f2xx_hal_spi.o(i.HAL_SPI_Receive) refers to stm32f2xx_hal_spi.o(i.SPI_EndRxTransaction) for SPI_EndRxTransaction
    stm32f2xx_hal_spi.o(i.HAL_SPI_Receive_DMA) refers to stm32f2xx_hal_spi.o(i.HAL_SPI_TransmitReceive_DMA) for HAL_SPI_TransmitReceive_DMA
    stm32f2xx_hal_spi.o(i.HAL_SPI_Receive_DMA) refers to stm32f2xx_hal_dma.o(i.HAL_DMA_Start_IT) for HAL_DMA_Start_IT
    stm32f2xx_hal_spi.o(i.HAL_SPI_Receive_DMA) refers to stm32f2xx_hal_spi.o(i.SPI_DMAHalfReceiveCplt) for SPI_DMAHalfReceiveCplt
    stm32f2xx_hal_spi.o(i.HAL_SPI_Receive_DMA) refers to stm32f2xx_hal_spi.o(i.SPI_DMAReceiveCplt) for SPI_DMAReceiveCplt
    stm32f2xx_hal_spi.o(i.HAL_SPI_Receive_DMA) refers to stm32f2xx_hal_spi.o(i.SPI_DMAError) for SPI_DMAError
    stm32f2xx_hal_spi.o(i.HAL_SPI_Receive_IT) refers to stm32f2xx_hal_spi.o(i.HAL_SPI_TransmitReceive_IT) for HAL_SPI_TransmitReceive_IT
    stm32f2xx_hal_spi.o(i.HAL_SPI_Receive_IT) refers to stm32f2xx_hal_spi.o(i.SPI_RxISR_16BIT) for SPI_RxISR_16BIT
    stm32f2xx_hal_spi.o(i.HAL_SPI_Receive_IT) refers to stm32f2xx_hal_spi.o(i.SPI_RxISR_8BIT) for SPI_RxISR_8BIT
    stm32f2xx_hal_spi.o(i.HAL_SPI_Transmit) refers to stm32f2xx_hal.o(i.HAL_GetTick) for HAL_GetTick
    stm32f2xx_hal_spi.o(i.HAL_SPI_Transmit) refers to stm32f2xx_hal_spi.o(i.SPI_EndRxTxTransaction) for SPI_EndRxTxTransaction
    stm32f2xx_hal_spi.o(i.HAL_SPI_TransmitReceive) refers to stm32f2xx_hal.o(i.HAL_GetTick) for HAL_GetTick
    stm32f2xx_hal_spi.o(i.HAL_SPI_TransmitReceive) refers to stm32f2xx_hal_spi.o(i.SPI_EndRxTxTransaction) for SPI_EndRxTxTransaction
    stm32f2xx_hal_spi.o(i.HAL_SPI_TransmitReceive_DMA) refers to stm32f2xx_hal_dma.o(i.HAL_DMA_Start_IT) for HAL_DMA_Start_IT
    stm32f2xx_hal_spi.o(i.HAL_SPI_TransmitReceive_DMA) refers to stm32f2xx_hal_spi.o(i.SPI_DMAHalfTransmitReceiveCplt) for SPI_DMAHalfTransmitReceiveCplt
    stm32f2xx_hal_spi.o(i.HAL_SPI_TransmitReceive_DMA) refers to stm32f2xx_hal_spi.o(i.SPI_DMATransmitReceiveCplt) for SPI_DMATransmitReceiveCplt
    stm32f2xx_hal_spi.o(i.HAL_SPI_TransmitReceive_DMA) refers to stm32f2xx_hal_spi.o(i.SPI_DMAError) for SPI_DMAError
    stm32f2xx_hal_spi.o(i.HAL_SPI_TransmitReceive_DMA) refers to stm32f2xx_hal_spi.o(i.SPI_DMAHalfReceiveCplt) for SPI_DMAHalfReceiveCplt
    stm32f2xx_hal_spi.o(i.HAL_SPI_TransmitReceive_DMA) refers to stm32f2xx_hal_spi.o(i.SPI_DMAReceiveCplt) for SPI_DMAReceiveCplt
    stm32f2xx_hal_spi.o(i.HAL_SPI_TransmitReceive_IT) refers to stm32f2xx_hal_spi.o(i.SPI_2linesRxISR_16BIT) for SPI_2linesRxISR_16BIT
    stm32f2xx_hal_spi.o(i.HAL_SPI_TransmitReceive_IT) refers to stm32f2xx_hal_spi.o(i.SPI_2linesTxISR_16BIT) for SPI_2linesTxISR_16BIT
    stm32f2xx_hal_spi.o(i.HAL_SPI_TransmitReceive_IT) refers to stm32f2xx_hal_spi.o(i.SPI_2linesRxISR_8BIT) for SPI_2linesRxISR_8BIT
    stm32f2xx_hal_spi.o(i.HAL_SPI_TransmitReceive_IT) refers to stm32f2xx_hal_spi.o(i.SPI_2linesTxISR_8BIT) for SPI_2linesTxISR_8BIT
    stm32f2xx_hal_spi.o(i.HAL_SPI_Transmit_DMA) refers to stm32f2xx_hal_dma.o(i.HAL_DMA_Start_IT) for HAL_DMA_Start_IT
    stm32f2xx_hal_spi.o(i.HAL_SPI_Transmit_DMA) refers to stm32f2xx_hal_spi.o(i.SPI_DMAHalfTransmitCplt) for SPI_DMAHalfTransmitCplt
    stm32f2xx_hal_spi.o(i.HAL_SPI_Transmit_DMA) refers to stm32f2xx_hal_spi.o(i.SPI_DMATransmitCplt) for SPI_DMATransmitCplt
    stm32f2xx_hal_spi.o(i.HAL_SPI_Transmit_DMA) refers to stm32f2xx_hal_spi.o(i.SPI_DMAError) for SPI_DMAError
    stm32f2xx_hal_spi.o(i.HAL_SPI_Transmit_IT) refers to stm32f2xx_hal_spi.o(i.SPI_TxISR_16BIT) for SPI_TxISR_16BIT
    stm32f2xx_hal_spi.o(i.HAL_SPI_Transmit_IT) refers to stm32f2xx_hal_spi.o(i.SPI_TxISR_8BIT) for SPI_TxISR_8BIT
    stm32f2xx_hal_spi.o(i.SPI_2linesRxISR_16BIT) refers to stm32f2xx_hal_spi.o(i.SPI_CloseRxTx_ISR) for SPI_CloseRxTx_ISR
    stm32f2xx_hal_spi.o(i.SPI_2linesRxISR_8BIT) refers to stm32f2xx_hal_spi.o(i.SPI_CloseRxTx_ISR) for SPI_CloseRxTx_ISR
    stm32f2xx_hal_spi.o(i.SPI_2linesTxISR_16BIT) refers to stm32f2xx_hal_spi.o(i.SPI_CloseRxTx_ISR) for SPI_CloseRxTx_ISR
    stm32f2xx_hal_spi.o(i.SPI_2linesTxISR_8BIT) refers to stm32f2xx_hal_spi.o(i.SPI_CloseRxTx_ISR) for SPI_CloseRxTx_ISR
    stm32f2xx_hal_spi.o(i.SPI_AbortRx_ISR) refers to system_stm32f2xx.o(.data) for SystemCoreClock
    stm32f2xx_hal_spi.o(i.SPI_CloseRxTx_ISR) refers to stm32f2xx_hal.o(i.HAL_GetTick) for HAL_GetTick
    stm32f2xx_hal_spi.o(i.SPI_CloseRxTx_ISR) refers to stm32f2xx_hal_spi.o(i.SPI_EndRxTxTransaction) for SPI_EndRxTxTransaction
    stm32f2xx_hal_spi.o(i.SPI_CloseRxTx_ISR) refers to stm32f2xx_hal_spi.o(i.HAL_SPI_ErrorCallback) for HAL_SPI_ErrorCallback
    stm32f2xx_hal_spi.o(i.SPI_CloseRxTx_ISR) refers to stm32f2xx_hal_spi.o(i.HAL_SPI_TxRxCpltCallback) for HAL_SPI_TxRxCpltCallback
    stm32f2xx_hal_spi.o(i.SPI_CloseRxTx_ISR) refers to stm32f2xx_hal_spi.o(i.HAL_SPI_RxCpltCallback) for HAL_SPI_RxCpltCallback
    stm32f2xx_hal_spi.o(i.SPI_CloseRxTx_ISR) refers to system_stm32f2xx.o(.data) for SystemCoreClock
    stm32f2xx_hal_spi.o(i.SPI_CloseRx_ISR) refers to stm32f2xx_hal.o(i.HAL_GetTick) for HAL_GetTick
    stm32f2xx_hal_spi.o(i.SPI_CloseRx_ISR) refers to stm32f2xx_hal_spi.o(i.SPI_EndRxTransaction) for SPI_EndRxTransaction
    stm32f2xx_hal_spi.o(i.SPI_CloseRx_ISR) refers to stm32f2xx_hal_spi.o(i.HAL_SPI_ErrorCallback) for HAL_SPI_ErrorCallback
    stm32f2xx_hal_spi.o(i.SPI_CloseRx_ISR) refers to stm32f2xx_hal_spi.o(i.HAL_SPI_RxCpltCallback) for HAL_SPI_RxCpltCallback
    stm32f2xx_hal_spi.o(i.SPI_CloseTx_ISR) refers to stm32f2xx_hal.o(i.HAL_GetTick) for HAL_GetTick
    stm32f2xx_hal_spi.o(i.SPI_CloseTx_ISR) refers to stm32f2xx_hal_spi.o(i.SPI_EndRxTxTransaction) for SPI_EndRxTxTransaction
    stm32f2xx_hal_spi.o(i.SPI_CloseTx_ISR) refers to stm32f2xx_hal_spi.o(i.HAL_SPI_ErrorCallback) for HAL_SPI_ErrorCallback
    stm32f2xx_hal_spi.o(i.SPI_CloseTx_ISR) refers to stm32f2xx_hal_spi.o(i.HAL_SPI_TxCpltCallback) for HAL_SPI_TxCpltCallback
    stm32f2xx_hal_spi.o(i.SPI_CloseTx_ISR) refers to system_stm32f2xx.o(.data) for SystemCoreClock
    stm32f2xx_hal_spi.o(i.SPI_DMAAbortOnError) refers to stm32f2xx_hal_spi.o(i.HAL_SPI_ErrorCallback) for HAL_SPI_ErrorCallback
    stm32f2xx_hal_spi.o(i.SPI_DMAError) refers to stm32f2xx_hal_spi.o(i.HAL_SPI_ErrorCallback) for HAL_SPI_ErrorCallback
    stm32f2xx_hal_spi.o(i.SPI_DMAHalfReceiveCplt) refers to stm32f2xx_hal_spi.o(i.HAL_SPI_RxHalfCpltCallback) for HAL_SPI_RxHalfCpltCallback
    stm32f2xx_hal_spi.o(i.SPI_DMAHalfTransmitCplt) refers to stm32f2xx_hal_spi.o(i.HAL_SPI_TxHalfCpltCallback) for HAL_SPI_TxHalfCpltCallback
    stm32f2xx_hal_spi.o(i.SPI_DMAHalfTransmitReceiveCplt) refers to stm32f2xx_hal_spi.o(i.HAL_SPI_TxRxHalfCpltCallback) for HAL_SPI_TxRxHalfCpltCallback
    stm32f2xx_hal_spi.o(i.SPI_DMAReceiveCplt) refers to stm32f2xx_hal.o(i.HAL_GetTick) for HAL_GetTick
    stm32f2xx_hal_spi.o(i.SPI_DMAReceiveCplt) refers to stm32f2xx_hal_spi.o(i.SPI_EndRxTransaction) for SPI_EndRxTransaction
    stm32f2xx_hal_spi.o(i.SPI_DMAReceiveCplt) refers to stm32f2xx_hal_spi.o(i.HAL_SPI_ErrorCallback) for HAL_SPI_ErrorCallback
    stm32f2xx_hal_spi.o(i.SPI_DMAReceiveCplt) refers to stm32f2xx_hal_spi.o(i.HAL_SPI_RxCpltCallback) for HAL_SPI_RxCpltCallback
    stm32f2xx_hal_spi.o(i.SPI_DMARxAbortCallback) refers to stm32f2xx_hal.o(i.HAL_GetTick) for HAL_GetTick
    stm32f2xx_hal_spi.o(i.SPI_DMARxAbortCallback) refers to stm32f2xx_hal_spi.o(i.SPI_EndRxTxTransaction) for SPI_EndRxTxTransaction
    stm32f2xx_hal_spi.o(i.SPI_DMARxAbortCallback) refers to stm32f2xx_hal_spi.o(i.HAL_SPI_AbortCpltCallback) for HAL_SPI_AbortCpltCallback
    stm32f2xx_hal_spi.o(i.SPI_DMATransmitCplt) refers to stm32f2xx_hal.o(i.HAL_GetTick) for HAL_GetTick
    stm32f2xx_hal_spi.o(i.SPI_DMATransmitCplt) refers to stm32f2xx_hal_spi.o(i.SPI_EndRxTxTransaction) for SPI_EndRxTxTransaction
    stm32f2xx_hal_spi.o(i.SPI_DMATransmitCplt) refers to stm32f2xx_hal_spi.o(i.HAL_SPI_ErrorCallback) for HAL_SPI_ErrorCallback
    stm32f2xx_hal_spi.o(i.SPI_DMATransmitCplt) refers to stm32f2xx_hal_spi.o(i.HAL_SPI_TxCpltCallback) for HAL_SPI_TxCpltCallback
    stm32f2xx_hal_spi.o(i.SPI_DMATransmitReceiveCplt) refers to stm32f2xx_hal.o(i.HAL_GetTick) for HAL_GetTick
    stm32f2xx_hal_spi.o(i.SPI_DMATransmitReceiveCplt) refers to stm32f2xx_hal_spi.o(i.SPI_EndRxTxTransaction) for SPI_EndRxTxTransaction
    stm32f2xx_hal_spi.o(i.SPI_DMATransmitReceiveCplt) refers to stm32f2xx_hal_spi.o(i.HAL_SPI_ErrorCallback) for HAL_SPI_ErrorCallback
    stm32f2xx_hal_spi.o(i.SPI_DMATransmitReceiveCplt) refers to stm32f2xx_hal_spi.o(i.HAL_SPI_TxRxCpltCallback) for HAL_SPI_TxRxCpltCallback
    stm32f2xx_hal_spi.o(i.SPI_DMATxAbortCallback) refers to stm32f2xx_hal_spi.o(i.HAL_SPI_AbortCpltCallback) for HAL_SPI_AbortCpltCallback
    stm32f2xx_hal_spi.o(i.SPI_DMATxAbortCallback) refers to system_stm32f2xx.o(.data) for SystemCoreClock
    stm32f2xx_hal_spi.o(i.SPI_EndRxTransaction) refers to stm32f2xx_hal_spi.o(i.SPI_WaitFlagStateUntilTimeout) for SPI_WaitFlagStateUntilTimeout
    stm32f2xx_hal_spi.o(i.SPI_EndRxTxTransaction) refers to stm32f2xx_hal_spi.o(i.SPI_WaitFlagStateUntilTimeout) for SPI_WaitFlagStateUntilTimeout
    stm32f2xx_hal_spi.o(i.SPI_RxISR_16BIT) refers to stm32f2xx_hal_spi.o(i.SPI_CloseRx_ISR) for SPI_CloseRx_ISR
    stm32f2xx_hal_spi.o(i.SPI_RxISR_8BIT) refers to stm32f2xx_hal_spi.o(i.SPI_CloseRx_ISR) for SPI_CloseRx_ISR
    stm32f2xx_hal_spi.o(i.SPI_TxISR_16BIT) refers to stm32f2xx_hal_spi.o(i.SPI_CloseTx_ISR) for SPI_CloseTx_ISR
    stm32f2xx_hal_spi.o(i.SPI_TxISR_8BIT) refers to stm32f2xx_hal_spi.o(i.SPI_CloseTx_ISR) for SPI_CloseTx_ISR
    stm32f2xx_hal_spi.o(i.SPI_WaitFlagStateUntilTimeout) refers to stm32f2xx_hal.o(i.HAL_GetTick) for HAL_GetTick
    stm32f2xx_hal_spi.o(i.SPI_WaitFlagStateUntilTimeout) refers to system_stm32f2xx.o(.data) for SystemCoreClock
    stm32f2xx_hal_tim.o(i.HAL_TIM_Base_DeInit) refers to tim.o(i.HAL_TIM_Base_MspDeInit) for HAL_TIM_Base_MspDeInit
    stm32f2xx_hal_tim.o(i.HAL_TIM_Base_Init) refers to tim.o(i.HAL_TIM_Base_MspInit) for HAL_TIM_Base_MspInit
    stm32f2xx_hal_tim.o(i.HAL_TIM_Base_Init) refers to stm32f2xx_hal_tim.o(i.TIM_Base_SetConfig) for TIM_Base_SetConfig
    stm32f2xx_hal_tim.o(i.HAL_TIM_Base_Start_DMA) refers to stm32f2xx_hal_dma.o(i.HAL_DMA_Start_IT) for HAL_DMA_Start_IT
    stm32f2xx_hal_tim.o(i.HAL_TIM_Base_Start_DMA) refers to stm32f2xx_hal_tim.o(i.TIM_DMAPeriodElapsedCplt) for TIM_DMAPeriodElapsedCplt
    stm32f2xx_hal_tim.o(i.HAL_TIM_Base_Start_DMA) refers to stm32f2xx_hal_tim.o(i.TIM_DMAPeriodElapsedHalfCplt) for TIM_DMAPeriodElapsedHalfCplt
    stm32f2xx_hal_tim.o(i.HAL_TIM_Base_Start_DMA) refers to stm32f2xx_hal_tim.o(i.TIM_DMAError) for TIM_DMAError
    stm32f2xx_hal_tim.o(i.HAL_TIM_Base_Stop_DMA) refers to stm32f2xx_hal_dma.o(i.HAL_DMA_Abort_IT) for HAL_DMA_Abort_IT
    stm32f2xx_hal_tim.o(i.HAL_TIM_ConfigClockSource) refers to stm32f2xx_hal_tim.o(i.TIM_ETR_SetConfig) for TIM_ETR_SetConfig
    stm32f2xx_hal_tim.o(i.HAL_TIM_ConfigClockSource) refers to stm32f2xx_hal_tim.o(i.TIM_TI1_ConfigInputStage) for TIM_TI1_ConfigInputStage
    stm32f2xx_hal_tim.o(i.HAL_TIM_ConfigClockSource) refers to stm32f2xx_hal_tim.o(i.TIM_TI2_ConfigInputStage) for TIM_TI2_ConfigInputStage
    stm32f2xx_hal_tim.o(i.HAL_TIM_ConfigClockSource) refers to stm32f2xx_hal_tim.o(i.TIM_ITRx_SetConfig) for TIM_ITRx_SetConfig
    stm32f2xx_hal_tim.o(i.HAL_TIM_ConfigOCrefClear) refers to stm32f2xx_hal_tim.o(i.TIM_ETR_SetConfig) for TIM_ETR_SetConfig
    stm32f2xx_hal_tim.o(i.HAL_TIM_DMABurst_MultiReadStart) refers to stm32f2xx_hal_dma.o(i.HAL_DMA_Start_IT) for HAL_DMA_Start_IT
    stm32f2xx_hal_tim.o(i.HAL_TIM_DMABurst_MultiReadStart) refers to stm32f2xx_hal_tim.o(i.TIM_DMAError) for TIM_DMAError
    stm32f2xx_hal_tim.o(i.HAL_TIM_DMABurst_MultiReadStart) refers to stm32f2xx_hal_tim.o(i.TIM_DMACaptureCplt) for TIM_DMACaptureCplt
    stm32f2xx_hal_tim.o(i.HAL_TIM_DMABurst_MultiReadStart) refers to stm32f2xx_hal_tim.o(i.TIM_DMACaptureHalfCplt) for TIM_DMACaptureHalfCplt
    stm32f2xx_hal_tim.o(i.HAL_TIM_DMABurst_MultiReadStart) refers to stm32f2xx_hal_tim.o(i.TIM_DMAPeriodElapsedCplt) for TIM_DMAPeriodElapsedCplt
    stm32f2xx_hal_tim.o(i.HAL_TIM_DMABurst_MultiReadStart) refers to stm32f2xx_hal_tim.o(i.TIM_DMAPeriodElapsedHalfCplt) for TIM_DMAPeriodElapsedHalfCplt
    stm32f2xx_hal_tim.o(i.HAL_TIM_DMABurst_MultiReadStart) refers to stm32f2xx_hal_tim_ex.o(i.TIMEx_DMACommutationCplt) for TIMEx_DMACommutationCplt
    stm32f2xx_hal_tim.o(i.HAL_TIM_DMABurst_MultiReadStart) refers to stm32f2xx_hal_tim_ex.o(i.TIMEx_DMACommutationHalfCplt) for TIMEx_DMACommutationHalfCplt
    stm32f2xx_hal_tim.o(i.HAL_TIM_DMABurst_MultiReadStart) refers to stm32f2xx_hal_tim.o(i.TIM_DMATriggerCplt) for TIM_DMATriggerCplt
    stm32f2xx_hal_tim.o(i.HAL_TIM_DMABurst_MultiReadStart) refers to stm32f2xx_hal_tim.o(i.TIM_DMATriggerHalfCplt) for TIM_DMATriggerHalfCplt
    stm32f2xx_hal_tim.o(i.HAL_TIM_DMABurst_MultiWriteStart) refers to stm32f2xx_hal_dma.o(i.HAL_DMA_Start_IT) for HAL_DMA_Start_IT
    stm32f2xx_hal_tim.o(i.HAL_TIM_DMABurst_MultiWriteStart) refers to stm32f2xx_hal_tim.o(i.TIM_DMAError) for TIM_DMAError
    stm32f2xx_hal_tim.o(i.HAL_TIM_DMABurst_MultiWriteStart) refers to stm32f2xx_hal_tim.o(i.TIM_DMADelayPulseCplt) for TIM_DMADelayPulseCplt
    stm32f2xx_hal_tim.o(i.HAL_TIM_DMABurst_MultiWriteStart) refers to stm32f2xx_hal_tim.o(i.TIM_DMADelayPulseHalfCplt) for TIM_DMADelayPulseHalfCplt
    stm32f2xx_hal_tim.o(i.HAL_TIM_DMABurst_MultiWriteStart) refers to stm32f2xx_hal_tim.o(i.TIM_DMAPeriodElapsedCplt) for TIM_DMAPeriodElapsedCplt
    stm32f2xx_hal_tim.o(i.HAL_TIM_DMABurst_MultiWriteStart) refers to stm32f2xx_hal_tim.o(i.TIM_DMAPeriodElapsedHalfCplt) for TIM_DMAPeriodElapsedHalfCplt
    stm32f2xx_hal_tim.o(i.HAL_TIM_DMABurst_MultiWriteStart) refers to stm32f2xx_hal_tim_ex.o(i.TIMEx_DMACommutationCplt) for TIMEx_DMACommutationCplt
    stm32f2xx_hal_tim.o(i.HAL_TIM_DMABurst_MultiWriteStart) refers to stm32f2xx_hal_tim_ex.o(i.TIMEx_DMACommutationHalfCplt) for TIMEx_DMACommutationHalfCplt
    stm32f2xx_hal_tim.o(i.HAL_TIM_DMABurst_MultiWriteStart) refers to stm32f2xx_hal_tim.o(i.TIM_DMATriggerCplt) for TIM_DMATriggerCplt
    stm32f2xx_hal_tim.o(i.HAL_TIM_DMABurst_MultiWriteStart) refers to stm32f2xx_hal_tim.o(i.TIM_DMATriggerHalfCplt) for TIM_DMATriggerHalfCplt
    stm32f2xx_hal_tim.o(i.HAL_TIM_DMABurst_ReadStart) refers to stm32f2xx_hal_tim.o(i.HAL_TIM_DMABurst_MultiReadStart) for HAL_TIM_DMABurst_MultiReadStart
    stm32f2xx_hal_tim.o(i.HAL_TIM_DMABurst_ReadStop) refers to stm32f2xx_hal_dma.o(i.HAL_DMA_Abort_IT) for HAL_DMA_Abort_IT
    stm32f2xx_hal_tim.o(i.HAL_TIM_DMABurst_WriteStart) refers to stm32f2xx_hal_tim.o(i.HAL_TIM_DMABurst_MultiWriteStart) for HAL_TIM_DMABurst_MultiWriteStart
    stm32f2xx_hal_tim.o(i.HAL_TIM_DMABurst_WriteStop) refers to stm32f2xx_hal_dma.o(i.HAL_DMA_Abort_IT) for HAL_DMA_Abort_IT
    stm32f2xx_hal_tim.o(i.HAL_TIM_Encoder_DeInit) refers to stm32f2xx_hal_tim.o(i.HAL_TIM_Encoder_MspDeInit) for HAL_TIM_Encoder_MspDeInit
    stm32f2xx_hal_tim.o(i.HAL_TIM_Encoder_Init) refers to stm32f2xx_hal_tim.o(i.HAL_TIM_Encoder_MspInit) for HAL_TIM_Encoder_MspInit
    stm32f2xx_hal_tim.o(i.HAL_TIM_Encoder_Init) refers to stm32f2xx_hal_tim.o(i.TIM_Base_SetConfig) for TIM_Base_SetConfig
    stm32f2xx_hal_tim.o(i.HAL_TIM_Encoder_Start) refers to stm32f2xx_hal_tim.o(i.TIM_CCxChannelCmd) for TIM_CCxChannelCmd
    stm32f2xx_hal_tim.o(i.HAL_TIM_Encoder_Start_DMA) refers to stm32f2xx_hal_dma.o(i.HAL_DMA_Start_IT) for HAL_DMA_Start_IT
    stm32f2xx_hal_tim.o(i.HAL_TIM_Encoder_Start_DMA) refers to stm32f2xx_hal_tim.o(i.TIM_CCxChannelCmd) for TIM_CCxChannelCmd
    stm32f2xx_hal_tim.o(i.HAL_TIM_Encoder_Start_DMA) refers to stm32f2xx_hal_tim.o(i.TIM_DMACaptureCplt) for TIM_DMACaptureCplt
    stm32f2xx_hal_tim.o(i.HAL_TIM_Encoder_Start_DMA) refers to stm32f2xx_hal_tim.o(i.TIM_DMACaptureHalfCplt) for TIM_DMACaptureHalfCplt
    stm32f2xx_hal_tim.o(i.HAL_TIM_Encoder_Start_DMA) refers to stm32f2xx_hal_tim.o(i.TIM_DMAError) for TIM_DMAError
    stm32f2xx_hal_tim.o(i.HAL_TIM_Encoder_Start_IT) refers to stm32f2xx_hal_tim.o(i.TIM_CCxChannelCmd) for TIM_CCxChannelCmd
    stm32f2xx_hal_tim.o(i.HAL_TIM_Encoder_Stop) refers to stm32f2xx_hal_tim.o(i.TIM_CCxChannelCmd) for TIM_CCxChannelCmd
    stm32f2xx_hal_tim.o(i.HAL_TIM_Encoder_Stop_DMA) refers to stm32f2xx_hal_tim.o(i.TIM_CCxChannelCmd) for TIM_CCxChannelCmd
    stm32f2xx_hal_tim.o(i.HAL_TIM_Encoder_Stop_DMA) refers to stm32f2xx_hal_dma.o(i.HAL_DMA_Abort_IT) for HAL_DMA_Abort_IT
    stm32f2xx_hal_tim.o(i.HAL_TIM_Encoder_Stop_IT) refers to stm32f2xx_hal_tim.o(i.TIM_CCxChannelCmd) for TIM_CCxChannelCmd
    stm32f2xx_hal_tim.o(i.HAL_TIM_IC_ConfigChannel) refers to stm32f2xx_hal_tim.o(i.TIM_TI1_SetConfig) for TIM_TI1_SetConfig
    stm32f2xx_hal_tim.o(i.HAL_TIM_IC_ConfigChannel) refers to stm32f2xx_hal_tim.o(i.TIM_TI2_SetConfig) for TIM_TI2_SetConfig
    stm32f2xx_hal_tim.o(i.HAL_TIM_IC_DeInit) refers to stm32f2xx_hal_tim.o(i.HAL_TIM_IC_MspDeInit) for HAL_TIM_IC_MspDeInit
    stm32f2xx_hal_tim.o(i.HAL_TIM_IC_Init) refers to stm32f2xx_hal_tim.o(i.HAL_TIM_IC_MspInit) for HAL_TIM_IC_MspInit
    stm32f2xx_hal_tim.o(i.HAL_TIM_IC_Init) refers to stm32f2xx_hal_tim.o(i.TIM_Base_SetConfig) for TIM_Base_SetConfig
    stm32f2xx_hal_tim.o(i.HAL_TIM_IC_Start) refers to stm32f2xx_hal_tim.o(i.TIM_CCxChannelCmd) for TIM_CCxChannelCmd
    stm32f2xx_hal_tim.o(i.HAL_TIM_IC_Start_DMA) refers to stm32f2xx_hal_tim.o(i.TIM_CCxChannelCmd) for TIM_CCxChannelCmd
    stm32f2xx_hal_tim.o(i.HAL_TIM_IC_Start_DMA) refers to stm32f2xx_hal_dma.o(i.HAL_DMA_Start_IT) for HAL_DMA_Start_IT
    stm32f2xx_hal_tim.o(i.HAL_TIM_IC_Start_DMA) refers to stm32f2xx_hal_tim.o(i.TIM_DMACaptureCplt) for TIM_DMACaptureCplt
    stm32f2xx_hal_tim.o(i.HAL_TIM_IC_Start_DMA) refers to stm32f2xx_hal_tim.o(i.TIM_DMACaptureHalfCplt) for TIM_DMACaptureHalfCplt
    stm32f2xx_hal_tim.o(i.HAL_TIM_IC_Start_DMA) refers to stm32f2xx_hal_tim.o(i.TIM_DMAError) for TIM_DMAError
    stm32f2xx_hal_tim.o(i.HAL_TIM_IC_Start_IT) refers to stm32f2xx_hal_tim.o(i.TIM_CCxChannelCmd) for TIM_CCxChannelCmd
    stm32f2xx_hal_tim.o(i.HAL_TIM_IC_Stop) refers to stm32f2xx_hal_tim.o(i.TIM_CCxChannelCmd) for TIM_CCxChannelCmd
    stm32f2xx_hal_tim.o(i.HAL_TIM_IC_Stop_DMA) refers to stm32f2xx_hal_tim.o(i.TIM_CCxChannelCmd) for TIM_CCxChannelCmd
    stm32f2xx_hal_tim.o(i.HAL_TIM_IC_Stop_DMA) refers to stm32f2xx_hal_dma.o(i.HAL_DMA_Abort_IT) for HAL_DMA_Abort_IT
    stm32f2xx_hal_tim.o(i.HAL_TIM_IC_Stop_IT) refers to stm32f2xx_hal_tim.o(i.TIM_CCxChannelCmd) for TIM_CCxChannelCmd
    stm32f2xx_hal_tim.o(i.HAL_TIM_IRQHandler) refers to stm32f2xx_hal_tim.o(i.HAL_TIM_IC_CaptureCallback) for HAL_TIM_IC_CaptureCallback
    stm32f2xx_hal_tim.o(i.HAL_TIM_IRQHandler) refers to stm32f2xx_hal_tim.o(i.HAL_TIM_OC_DelayElapsedCallback) for HAL_TIM_OC_DelayElapsedCallback
    stm32f2xx_hal_tim.o(i.HAL_TIM_IRQHandler) refers to stm32f2xx_hal_tim.o(i.HAL_TIM_PWM_PulseFinishedCallback) for HAL_TIM_PWM_PulseFinishedCallback
    stm32f2xx_hal_tim.o(i.HAL_TIM_IRQHandler) refers to usart.o(i.HAL_TIM_PeriodElapsedCallback) for HAL_TIM_PeriodElapsedCallback
    stm32f2xx_hal_tim.o(i.HAL_TIM_IRQHandler) refers to stm32f2xx_hal_tim_ex.o(i.HAL_TIMEx_BreakCallback) for HAL_TIMEx_BreakCallback
    stm32f2xx_hal_tim.o(i.HAL_TIM_IRQHandler) refers to stm32f2xx_hal_tim.o(i.HAL_TIM_TriggerCallback) for HAL_TIM_TriggerCallback
    stm32f2xx_hal_tim.o(i.HAL_TIM_IRQHandler) refers to stm32f2xx_hal_tim_ex.o(i.HAL_TIMEx_CommutCallback) for HAL_TIMEx_CommutCallback
    stm32f2xx_hal_tim.o(i.HAL_TIM_OC_ConfigChannel) refers to stm32f2xx_hal_tim.o(i.TIM_OC1_SetConfig) for TIM_OC1_SetConfig
    stm32f2xx_hal_tim.o(i.HAL_TIM_OC_ConfigChannel) refers to stm32f2xx_hal_tim.o(i.TIM_OC2_SetConfig) for TIM_OC2_SetConfig
    stm32f2xx_hal_tim.o(i.HAL_TIM_OC_ConfigChannel) refers to stm32f2xx_hal_tim.o(i.TIM_OC3_SetConfig) for TIM_OC3_SetConfig
    stm32f2xx_hal_tim.o(i.HAL_TIM_OC_ConfigChannel) refers to stm32f2xx_hal_tim.o(i.TIM_OC4_SetConfig) for TIM_OC4_SetConfig
    stm32f2xx_hal_tim.o(i.HAL_TIM_OC_DeInit) refers to stm32f2xx_hal_tim.o(i.HAL_TIM_OC_MspDeInit) for HAL_TIM_OC_MspDeInit
    stm32f2xx_hal_tim.o(i.HAL_TIM_OC_Init) refers to stm32f2xx_hal_tim.o(i.HAL_TIM_OC_MspInit) for HAL_TIM_OC_MspInit
    stm32f2xx_hal_tim.o(i.HAL_TIM_OC_Init) refers to stm32f2xx_hal_tim.o(i.TIM_Base_SetConfig) for TIM_Base_SetConfig
    stm32f2xx_hal_tim.o(i.HAL_TIM_OC_Start) refers to stm32f2xx_hal_tim.o(i.TIM_CCxChannelCmd) for TIM_CCxChannelCmd
    stm32f2xx_hal_tim.o(i.HAL_TIM_OC_Start_DMA) refers to stm32f2xx_hal_dma.o(i.HAL_DMA_Start_IT) for HAL_DMA_Start_IT
    stm32f2xx_hal_tim.o(i.HAL_TIM_OC_Start_DMA) refers to stm32f2xx_hal_tim.o(i.TIM_CCxChannelCmd) for TIM_CCxChannelCmd
    stm32f2xx_hal_tim.o(i.HAL_TIM_OC_Start_DMA) refers to stm32f2xx_hal_tim.o(i.TIM_DMADelayPulseCplt) for TIM_DMADelayPulseCplt
    stm32f2xx_hal_tim.o(i.HAL_TIM_OC_Start_DMA) refers to stm32f2xx_hal_tim.o(i.TIM_DMADelayPulseHalfCplt) for TIM_DMADelayPulseHalfCplt
    stm32f2xx_hal_tim.o(i.HAL_TIM_OC_Start_DMA) refers to stm32f2xx_hal_tim.o(i.TIM_DMAError) for TIM_DMAError
    stm32f2xx_hal_tim.o(i.HAL_TIM_OC_Start_IT) refers to stm32f2xx_hal_tim.o(i.TIM_CCxChannelCmd) for TIM_CCxChannelCmd
    stm32f2xx_hal_tim.o(i.HAL_TIM_OC_Stop) refers to stm32f2xx_hal_tim.o(i.TIM_CCxChannelCmd) for TIM_CCxChannelCmd
    stm32f2xx_hal_tim.o(i.HAL_TIM_OC_Stop_DMA) refers to stm32f2xx_hal_dma.o(i.HAL_DMA_Abort_IT) for HAL_DMA_Abort_IT
    stm32f2xx_hal_tim.o(i.HAL_TIM_OC_Stop_DMA) refers to stm32f2xx_hal_tim.o(i.TIM_CCxChannelCmd) for TIM_CCxChannelCmd
    stm32f2xx_hal_tim.o(i.HAL_TIM_OC_Stop_IT) refers to stm32f2xx_hal_tim.o(i.TIM_CCxChannelCmd) for TIM_CCxChannelCmd
    stm32f2xx_hal_tim.o(i.HAL_TIM_OnePulse_ConfigChannel) refers to stm32f2xx_hal_tim.o(i.TIM_OC1_SetConfig) for TIM_OC1_SetConfig
    stm32f2xx_hal_tim.o(i.HAL_TIM_OnePulse_ConfigChannel) refers to stm32f2xx_hal_tim.o(i.TIM_OC2_SetConfig) for TIM_OC2_SetConfig
    stm32f2xx_hal_tim.o(i.HAL_TIM_OnePulse_ConfigChannel) refers to stm32f2xx_hal_tim.o(i.TIM_TI1_SetConfig) for TIM_TI1_SetConfig
    stm32f2xx_hal_tim.o(i.HAL_TIM_OnePulse_ConfigChannel) refers to stm32f2xx_hal_tim.o(i.TIM_TI2_SetConfig) for TIM_TI2_SetConfig
    stm32f2xx_hal_tim.o(i.HAL_TIM_OnePulse_DeInit) refers to stm32f2xx_hal_tim.o(i.HAL_TIM_OnePulse_MspDeInit) for HAL_TIM_OnePulse_MspDeInit
    stm32f2xx_hal_tim.o(i.HAL_TIM_OnePulse_Init) refers to stm32f2xx_hal_tim.o(i.HAL_TIM_OnePulse_MspInit) for HAL_TIM_OnePulse_MspInit
    stm32f2xx_hal_tim.o(i.HAL_TIM_OnePulse_Init) refers to stm32f2xx_hal_tim.o(i.TIM_Base_SetConfig) for TIM_Base_SetConfig
    stm32f2xx_hal_tim.o(i.HAL_TIM_OnePulse_Start) refers to stm32f2xx_hal_tim.o(i.TIM_CCxChannelCmd) for TIM_CCxChannelCmd
    stm32f2xx_hal_tim.o(i.HAL_TIM_OnePulse_Start_IT) refers to stm32f2xx_hal_tim.o(i.TIM_CCxChannelCmd) for TIM_CCxChannelCmd
    stm32f2xx_hal_tim.o(i.HAL_TIM_OnePulse_Stop) refers to stm32f2xx_hal_tim.o(i.TIM_CCxChannelCmd) for TIM_CCxChannelCmd
    stm32f2xx_hal_tim.o(i.HAL_TIM_OnePulse_Stop_IT) refers to stm32f2xx_hal_tim.o(i.TIM_CCxChannelCmd) for TIM_CCxChannelCmd
    stm32f2xx_hal_tim.o(i.HAL_TIM_PWM_ConfigChannel) refers to stm32f2xx_hal_tim.o(i.TIM_OC1_SetConfig) for TIM_OC1_SetConfig
    stm32f2xx_hal_tim.o(i.HAL_TIM_PWM_ConfigChannel) refers to stm32f2xx_hal_tim.o(i.TIM_OC2_SetConfig) for TIM_OC2_SetConfig
    stm32f2xx_hal_tim.o(i.HAL_TIM_PWM_ConfigChannel) refers to stm32f2xx_hal_tim.o(i.TIM_OC3_SetConfig) for TIM_OC3_SetConfig
    stm32f2xx_hal_tim.o(i.HAL_TIM_PWM_ConfigChannel) refers to stm32f2xx_hal_tim.o(i.TIM_OC4_SetConfig) for TIM_OC4_SetConfig
    stm32f2xx_hal_tim.o(i.HAL_TIM_PWM_DeInit) refers to tim.o(i.HAL_TIM_PWM_MspDeInit) for HAL_TIM_PWM_MspDeInit
    stm32f2xx_hal_tim.o(i.HAL_TIM_PWM_Init) refers to tim.o(i.HAL_TIM_PWM_MspInit) for HAL_TIM_PWM_MspInit
    stm32f2xx_hal_tim.o(i.HAL_TIM_PWM_Init) refers to stm32f2xx_hal_tim.o(i.TIM_Base_SetConfig) for TIM_Base_SetConfig
    stm32f2xx_hal_tim.o(i.HAL_TIM_PWM_Start) refers to stm32f2xx_hal_tim.o(i.TIM_CCxChannelCmd) for TIM_CCxChannelCmd
    stm32f2xx_hal_tim.o(i.HAL_TIM_PWM_Start_DMA) refers to stm32f2xx_hal_dma.o(i.HAL_DMA_Start_IT) for HAL_DMA_Start_IT
    stm32f2xx_hal_tim.o(i.HAL_TIM_PWM_Start_DMA) refers to stm32f2xx_hal_tim.o(i.TIM_CCxChannelCmd) for TIM_CCxChannelCmd
    stm32f2xx_hal_tim.o(i.HAL_TIM_PWM_Start_DMA) refers to stm32f2xx_hal_tim.o(i.TIM_DMADelayPulseCplt) for TIM_DMADelayPulseCplt
    stm32f2xx_hal_tim.o(i.HAL_TIM_PWM_Start_DMA) refers to stm32f2xx_hal_tim.o(i.TIM_DMADelayPulseHalfCplt) for TIM_DMADelayPulseHalfCplt
    stm32f2xx_hal_tim.o(i.HAL_TIM_PWM_Start_DMA) refers to stm32f2xx_hal_tim.o(i.TIM_DMAError) for TIM_DMAError
    stm32f2xx_hal_tim.o(i.HAL_TIM_PWM_Start_IT) refers to stm32f2xx_hal_tim.o(i.TIM_CCxChannelCmd) for TIM_CCxChannelCmd
    stm32f2xx_hal_tim.o(i.HAL_TIM_PWM_Stop) refers to stm32f2xx_hal_tim.o(i.TIM_CCxChannelCmd) for TIM_CCxChannelCmd
    stm32f2xx_hal_tim.o(i.HAL_TIM_PWM_Stop_DMA) refers to stm32f2xx_hal_dma.o(i.HAL_DMA_Abort_IT) for HAL_DMA_Abort_IT
    stm32f2xx_hal_tim.o(i.HAL_TIM_PWM_Stop_DMA) refers to stm32f2xx_hal_tim.o(i.TIM_CCxChannelCmd) for TIM_CCxChannelCmd
    stm32f2xx_hal_tim.o(i.HAL_TIM_PWM_Stop_IT) refers to stm32f2xx_hal_tim.o(i.TIM_CCxChannelCmd) for TIM_CCxChannelCmd
    stm32f2xx_hal_tim.o(i.HAL_TIM_SlaveConfigSynchro) refers to stm32f2xx_hal_tim.o(i.TIM_SlaveTimer_SetConfig) for TIM_SlaveTimer_SetConfig
    stm32f2xx_hal_tim.o(i.HAL_TIM_SlaveConfigSynchro_IT) refers to stm32f2xx_hal_tim.o(i.TIM_SlaveTimer_SetConfig) for TIM_SlaveTimer_SetConfig
    stm32f2xx_hal_tim.o(i.TIM_DMACaptureCplt) refers to stm32f2xx_hal_tim.o(i.HAL_TIM_IC_CaptureCallback) for HAL_TIM_IC_CaptureCallback
    stm32f2xx_hal_tim.o(i.TIM_DMACaptureHalfCplt) refers to stm32f2xx_hal_tim.o(i.HAL_TIM_IC_CaptureHalfCpltCallback) for HAL_TIM_IC_CaptureHalfCpltCallback
    stm32f2xx_hal_tim.o(i.TIM_DMADelayPulseCplt) refers to stm32f2xx_hal_tim.o(i.HAL_TIM_PWM_PulseFinishedCallback) for HAL_TIM_PWM_PulseFinishedCallback
    stm32f2xx_hal_tim.o(i.TIM_DMADelayPulseHalfCplt) refers to stm32f2xx_hal_tim.o(i.HAL_TIM_PWM_PulseFinishedHalfCpltCallback) for HAL_TIM_PWM_PulseFinishedHalfCpltCallback
    stm32f2xx_hal_tim.o(i.TIM_DMAError) refers to stm32f2xx_hal_tim.o(i.HAL_TIM_ErrorCallback) for HAL_TIM_ErrorCallback
    stm32f2xx_hal_tim.o(i.TIM_DMAPeriodElapsedCplt) refers to usart.o(i.HAL_TIM_PeriodElapsedCallback) for HAL_TIM_PeriodElapsedCallback
    stm32f2xx_hal_tim.o(i.TIM_DMAPeriodElapsedHalfCplt) refers to stm32f2xx_hal_tim.o(i.HAL_TIM_PeriodElapsedHalfCpltCallback) for HAL_TIM_PeriodElapsedHalfCpltCallback
    stm32f2xx_hal_tim.o(i.TIM_DMATriggerCplt) refers to stm32f2xx_hal_tim.o(i.HAL_TIM_TriggerCallback) for HAL_TIM_TriggerCallback
    stm32f2xx_hal_tim.o(i.TIM_DMATriggerHalfCplt) refers to stm32f2xx_hal_tim.o(i.HAL_TIM_TriggerHalfCpltCallback) for HAL_TIM_TriggerHalfCpltCallback
    stm32f2xx_hal_tim.o(i.TIM_SlaveTimer_SetConfig) refers to stm32f2xx_hal_tim.o(i.TIM_ETR_SetConfig) for TIM_ETR_SetConfig
    stm32f2xx_hal_tim.o(i.TIM_SlaveTimer_SetConfig) refers to stm32f2xx_hal_tim.o(i.TIM_TI1_ConfigInputStage) for TIM_TI1_ConfigInputStage
    stm32f2xx_hal_tim.o(i.TIM_SlaveTimer_SetConfig) refers to stm32f2xx_hal_tim.o(i.TIM_TI2_ConfigInputStage) for TIM_TI2_ConfigInputStage
    stm32f2xx_hal_tim_ex.o(i.HAL_TIMEx_ConfigCommutEvent_DMA) refers to stm32f2xx_hal_tim_ex.o(i.TIMEx_DMACommutationCplt) for TIMEx_DMACommutationCplt
    stm32f2xx_hal_tim_ex.o(i.HAL_TIMEx_ConfigCommutEvent_DMA) refers to stm32f2xx_hal_tim_ex.o(i.TIMEx_DMACommutationHalfCplt) for TIMEx_DMACommutationHalfCplt
    stm32f2xx_hal_tim_ex.o(i.HAL_TIMEx_ConfigCommutEvent_DMA) refers to stm32f2xx_hal_tim.o(i.TIM_DMAError) for TIM_DMAError
    stm32f2xx_hal_tim_ex.o(i.HAL_TIMEx_HallSensor_DeInit) refers to stm32f2xx_hal_tim_ex.o(i.HAL_TIMEx_HallSensor_MspDeInit) for HAL_TIMEx_HallSensor_MspDeInit
    stm32f2xx_hal_tim_ex.o(i.HAL_TIMEx_HallSensor_Init) refers to stm32f2xx_hal_tim_ex.o(i.HAL_TIMEx_HallSensor_MspInit) for HAL_TIMEx_HallSensor_MspInit
    stm32f2xx_hal_tim_ex.o(i.HAL_TIMEx_HallSensor_Init) refers to stm32f2xx_hal_tim.o(i.TIM_Base_SetConfig) for TIM_Base_SetConfig
    stm32f2xx_hal_tim_ex.o(i.HAL_TIMEx_HallSensor_Init) refers to stm32f2xx_hal_tim.o(i.TIM_TI1_SetConfig) for TIM_TI1_SetConfig
    stm32f2xx_hal_tim_ex.o(i.HAL_TIMEx_HallSensor_Init) refers to stm32f2xx_hal_tim.o(i.TIM_OC2_SetConfig) for TIM_OC2_SetConfig
    stm32f2xx_hal_tim_ex.o(i.HAL_TIMEx_HallSensor_Start) refers to stm32f2xx_hal_tim.o(i.TIM_CCxChannelCmd) for TIM_CCxChannelCmd
    stm32f2xx_hal_tim_ex.o(i.HAL_TIMEx_HallSensor_Start_DMA) refers to stm32f2xx_hal_tim.o(i.TIM_CCxChannelCmd) for TIM_CCxChannelCmd
    stm32f2xx_hal_tim_ex.o(i.HAL_TIMEx_HallSensor_Start_DMA) refers to stm32f2xx_hal_dma.o(i.HAL_DMA_Start_IT) for HAL_DMA_Start_IT
    stm32f2xx_hal_tim_ex.o(i.HAL_TIMEx_HallSensor_Start_DMA) refers to stm32f2xx_hal_tim.o(i.TIM_DMACaptureCplt) for TIM_DMACaptureCplt
    stm32f2xx_hal_tim_ex.o(i.HAL_TIMEx_HallSensor_Start_DMA) refers to stm32f2xx_hal_tim.o(i.TIM_DMACaptureHalfCplt) for TIM_DMACaptureHalfCplt
    stm32f2xx_hal_tim_ex.o(i.HAL_TIMEx_HallSensor_Start_DMA) refers to stm32f2xx_hal_tim.o(i.TIM_DMAError) for TIM_DMAError
    stm32f2xx_hal_tim_ex.o(i.HAL_TIMEx_HallSensor_Start_IT) refers to stm32f2xx_hal_tim.o(i.TIM_CCxChannelCmd) for TIM_CCxChannelCmd
    stm32f2xx_hal_tim_ex.o(i.HAL_TIMEx_HallSensor_Stop) refers to stm32f2xx_hal_tim.o(i.TIM_CCxChannelCmd) for TIM_CCxChannelCmd
    stm32f2xx_hal_tim_ex.o(i.HAL_TIMEx_HallSensor_Stop_DMA) refers to stm32f2xx_hal_tim.o(i.TIM_CCxChannelCmd) for TIM_CCxChannelCmd
    stm32f2xx_hal_tim_ex.o(i.HAL_TIMEx_HallSensor_Stop_DMA) refers to stm32f2xx_hal_dma.o(i.HAL_DMA_Abort_IT) for HAL_DMA_Abort_IT
    stm32f2xx_hal_tim_ex.o(i.HAL_TIMEx_HallSensor_Stop_IT) refers to stm32f2xx_hal_tim.o(i.TIM_CCxChannelCmd) for TIM_CCxChannelCmd
    stm32f2xx_hal_tim_ex.o(i.HAL_TIMEx_OCN_Start) refers to stm32f2xx_hal_tim_ex.o(i.TIM_CCxNChannelCmd) for TIM_CCxNChannelCmd
    stm32f2xx_hal_tim_ex.o(i.HAL_TIMEx_OCN_Start_DMA) refers to stm32f2xx_hal_dma.o(i.HAL_DMA_Start_IT) for HAL_DMA_Start_IT
    stm32f2xx_hal_tim_ex.o(i.HAL_TIMEx_OCN_Start_DMA) refers to stm32f2xx_hal_tim_ex.o(i.TIM_CCxNChannelCmd) for TIM_CCxNChannelCmd
    stm32f2xx_hal_tim_ex.o(i.HAL_TIMEx_OCN_Start_DMA) refers to stm32f2xx_hal_tim_ex.o(i.TIM_DMADelayPulseNCplt) for TIM_DMADelayPulseNCplt
    stm32f2xx_hal_tim_ex.o(i.HAL_TIMEx_OCN_Start_DMA) refers to stm32f2xx_hal_tim.o(i.TIM_DMADelayPulseHalfCplt) for TIM_DMADelayPulseHalfCplt
    stm32f2xx_hal_tim_ex.o(i.HAL_TIMEx_OCN_Start_DMA) refers to stm32f2xx_hal_tim_ex.o(i.TIM_DMAErrorCCxN) for TIM_DMAErrorCCxN
    stm32f2xx_hal_tim_ex.o(i.HAL_TIMEx_OCN_Start_IT) refers to stm32f2xx_hal_tim_ex.o(i.TIM_CCxNChannelCmd) for TIM_CCxNChannelCmd
    stm32f2xx_hal_tim_ex.o(i.HAL_TIMEx_OCN_Stop) refers to stm32f2xx_hal_tim_ex.o(i.TIM_CCxNChannelCmd) for TIM_CCxNChannelCmd
    stm32f2xx_hal_tim_ex.o(i.HAL_TIMEx_OCN_Stop_DMA) refers to stm32f2xx_hal_dma.o(i.HAL_DMA_Abort_IT) for HAL_DMA_Abort_IT
    stm32f2xx_hal_tim_ex.o(i.HAL_TIMEx_OCN_Stop_DMA) refers to stm32f2xx_hal_tim_ex.o(i.TIM_CCxNChannelCmd) for TIM_CCxNChannelCmd
    stm32f2xx_hal_tim_ex.o(i.HAL_TIMEx_OCN_Stop_IT) refers to stm32f2xx_hal_tim_ex.o(i.TIM_CCxNChannelCmd) for TIM_CCxNChannelCmd
    stm32f2xx_hal_tim_ex.o(i.HAL_TIMEx_OnePulseN_Start) refers to stm32f2xx_hal_tim_ex.o(i.TIM_CCxNChannelCmd) for TIM_CCxNChannelCmd
    stm32f2xx_hal_tim_ex.o(i.HAL_TIMEx_OnePulseN_Start) refers to stm32f2xx_hal_tim.o(i.TIM_CCxChannelCmd) for TIM_CCxChannelCmd
    stm32f2xx_hal_tim_ex.o(i.HAL_TIMEx_OnePulseN_Start_IT) refers to stm32f2xx_hal_tim_ex.o(i.TIM_CCxNChannelCmd) for TIM_CCxNChannelCmd
    stm32f2xx_hal_tim_ex.o(i.HAL_TIMEx_OnePulseN_Start_IT) refers to stm32f2xx_hal_tim.o(i.TIM_CCxChannelCmd) for TIM_CCxChannelCmd
    stm32f2xx_hal_tim_ex.o(i.HAL_TIMEx_OnePulseN_Stop) refers to stm32f2xx_hal_tim_ex.o(i.TIM_CCxNChannelCmd) for TIM_CCxNChannelCmd
    stm32f2xx_hal_tim_ex.o(i.HAL_TIMEx_OnePulseN_Stop) refers to stm32f2xx_hal_tim.o(i.TIM_CCxChannelCmd) for TIM_CCxChannelCmd
    stm32f2xx_hal_tim_ex.o(i.HAL_TIMEx_OnePulseN_Stop_IT) refers to stm32f2xx_hal_tim_ex.o(i.TIM_CCxNChannelCmd) for TIM_CCxNChannelCmd
    stm32f2xx_hal_tim_ex.o(i.HAL_TIMEx_OnePulseN_Stop_IT) refers to stm32f2xx_hal_tim.o(i.TIM_CCxChannelCmd) for TIM_CCxChannelCmd
    stm32f2xx_hal_tim_ex.o(i.HAL_TIMEx_PWMN_Start) refers to stm32f2xx_hal_tim_ex.o(i.TIM_CCxNChannelCmd) for TIM_CCxNChannelCmd
    stm32f2xx_hal_tim_ex.o(i.HAL_TIMEx_PWMN_Start_DMA) refers to stm32f2xx_hal_dma.o(i.HAL_DMA_Start_IT) for HAL_DMA_Start_IT
    stm32f2xx_hal_tim_ex.o(i.HAL_TIMEx_PWMN_Start_DMA) refers to stm32f2xx_hal_tim_ex.o(i.TIM_CCxNChannelCmd) for TIM_CCxNChannelCmd
    stm32f2xx_hal_tim_ex.o(i.HAL_TIMEx_PWMN_Start_DMA) refers to stm32f2xx_hal_tim_ex.o(i.TIM_DMADelayPulseNCplt) for TIM_DMADelayPulseNCplt
    stm32f2xx_hal_tim_ex.o(i.HAL_TIMEx_PWMN_Start_DMA) refers to stm32f2xx_hal_tim.o(i.TIM_DMADelayPulseHalfCplt) for TIM_DMADelayPulseHalfCplt
    stm32f2xx_hal_tim_ex.o(i.HAL_TIMEx_PWMN_Start_DMA) refers to stm32f2xx_hal_tim_ex.o(i.TIM_DMAErrorCCxN) for TIM_DMAErrorCCxN
    stm32f2xx_hal_tim_ex.o(i.HAL_TIMEx_PWMN_Start_IT) refers to stm32f2xx_hal_tim_ex.o(i.TIM_CCxNChannelCmd) for TIM_CCxNChannelCmd
    stm32f2xx_hal_tim_ex.o(i.HAL_TIMEx_PWMN_Stop) refers to stm32f2xx_hal_tim_ex.o(i.TIM_CCxNChannelCmd) for TIM_CCxNChannelCmd
    stm32f2xx_hal_tim_ex.o(i.HAL_TIMEx_PWMN_Stop_DMA) refers to stm32f2xx_hal_dma.o(i.HAL_DMA_Abort_IT) for HAL_DMA_Abort_IT
    stm32f2xx_hal_tim_ex.o(i.HAL_TIMEx_PWMN_Stop_DMA) refers to stm32f2xx_hal_tim_ex.o(i.TIM_CCxNChannelCmd) for TIM_CCxNChannelCmd
    stm32f2xx_hal_tim_ex.o(i.HAL_TIMEx_PWMN_Stop_IT) refers to stm32f2xx_hal_tim_ex.o(i.TIM_CCxNChannelCmd) for TIM_CCxNChannelCmd
    stm32f2xx_hal_tim_ex.o(i.TIMEx_DMACommutationCplt) refers to stm32f2xx_hal_tim_ex.o(i.HAL_TIMEx_CommutCallback) for HAL_TIMEx_CommutCallback
    stm32f2xx_hal_tim_ex.o(i.TIMEx_DMACommutationHalfCplt) refers to stm32f2xx_hal_tim_ex.o(i.HAL_TIMEx_CommutHalfCpltCallback) for HAL_TIMEx_CommutHalfCpltCallback
    stm32f2xx_hal_tim_ex.o(i.TIM_DMADelayPulseNCplt) refers to stm32f2xx_hal_tim.o(i.HAL_TIM_PWM_PulseFinishedCallback) for HAL_TIM_PWM_PulseFinishedCallback
    stm32f2xx_hal_tim_ex.o(i.TIM_DMAErrorCCxN) refers to stm32f2xx_hal_tim.o(i.HAL_TIM_ErrorCallback) for HAL_TIM_ErrorCallback
    stm32f2xx_hal_uart.o(i.HAL_HalfDuplex_Init) refers to usart.o(i.HAL_UART_MspInit) for HAL_UART_MspInit
    stm32f2xx_hal_uart.o(i.HAL_HalfDuplex_Init) refers to stm32f2xx_hal_uart.o(i.UART_SetConfig) for UART_SetConfig
    stm32f2xx_hal_uart.o(i.HAL_LIN_Init) refers to usart.o(i.HAL_UART_MspInit) for HAL_UART_MspInit
    stm32f2xx_hal_uart.o(i.HAL_LIN_Init) refers to stm32f2xx_hal_uart.o(i.UART_SetConfig) for UART_SetConfig
    stm32f2xx_hal_uart.o(i.HAL_MultiProcessor_Init) refers to usart.o(i.HAL_UART_MspInit) for HAL_UART_MspInit
    stm32f2xx_hal_uart.o(i.HAL_MultiProcessor_Init) refers to stm32f2xx_hal_uart.o(i.UART_SetConfig) for UART_SetConfig
    stm32f2xx_hal_uart.o(i.HAL_UARTEx_ReceiveToIdle) refers to stm32f2xx_hal.o(i.HAL_GetTick) for HAL_GetTick
    stm32f2xx_hal_uart.o(i.HAL_UARTEx_ReceiveToIdle_DMA) refers to stm32f2xx_hal_uart.o(i.UART_Start_Receive_DMA) for UART_Start_Receive_DMA
    stm32f2xx_hal_uart.o(i.HAL_UARTEx_ReceiveToIdle_IT) refers to stm32f2xx_hal_uart.o(i.UART_Start_Receive_IT) for UART_Start_Receive_IT
    stm32f2xx_hal_uart.o(i.HAL_UART_Abort) refers to stm32f2xx_hal_dma.o(i.HAL_DMA_Abort) for HAL_DMA_Abort
    stm32f2xx_hal_uart.o(i.HAL_UART_Abort) refers to stm32f2xx_hal_dma.o(i.HAL_DMA_GetError) for HAL_DMA_GetError
    stm32f2xx_hal_uart.o(i.HAL_UART_AbortReceive) refers to stm32f2xx_hal_dma.o(i.HAL_DMA_Abort) for HAL_DMA_Abort
    stm32f2xx_hal_uart.o(i.HAL_UART_AbortReceive) refers to stm32f2xx_hal_dma.o(i.HAL_DMA_GetError) for HAL_DMA_GetError
    stm32f2xx_hal_uart.o(i.HAL_UART_AbortReceive_IT) refers to stm32f2xx_hal_dma.o(i.HAL_DMA_Abort_IT) for HAL_DMA_Abort_IT
    stm32f2xx_hal_uart.o(i.HAL_UART_AbortReceive_IT) refers to stm32f2xx_hal_uart.o(i.HAL_UART_AbortReceiveCpltCallback) for HAL_UART_AbortReceiveCpltCallback
    stm32f2xx_hal_uart.o(i.HAL_UART_AbortReceive_IT) refers to stm32f2xx_hal_uart.o(i.UART_DMARxOnlyAbortCallback) for UART_DMARxOnlyAbortCallback
    stm32f2xx_hal_uart.o(i.HAL_UART_AbortTransmit) refers to stm32f2xx_hal_dma.o(i.HAL_DMA_Abort) for HAL_DMA_Abort
    stm32f2xx_hal_uart.o(i.HAL_UART_AbortTransmit) refers to stm32f2xx_hal_dma.o(i.HAL_DMA_GetError) for HAL_DMA_GetError
    stm32f2xx_hal_uart.o(i.HAL_UART_AbortTransmit_IT) refers to stm32f2xx_hal_dma.o(i.HAL_DMA_Abort_IT) for HAL_DMA_Abort_IT
    stm32f2xx_hal_uart.o(i.HAL_UART_AbortTransmit_IT) refers to stm32f2xx_hal_uart.o(i.HAL_UART_AbortTransmitCpltCallback) for HAL_UART_AbortTransmitCpltCallback
    stm32f2xx_hal_uart.o(i.HAL_UART_AbortTransmit_IT) refers to stm32f2xx_hal_uart.o(i.UART_DMATxOnlyAbortCallback) for UART_DMATxOnlyAbortCallback
    stm32f2xx_hal_uart.o(i.HAL_UART_Abort_IT) refers to stm32f2xx_hal_dma.o(i.HAL_DMA_Abort_IT) for HAL_DMA_Abort_IT
    stm32f2xx_hal_uart.o(i.HAL_UART_Abort_IT) refers to stm32f2xx_hal_uart.o(i.HAL_UART_AbortCpltCallback) for HAL_UART_AbortCpltCallback
    stm32f2xx_hal_uart.o(i.HAL_UART_Abort_IT) refers to stm32f2xx_hal_uart.o(i.UART_DMATxAbortCallback) for UART_DMATxAbortCallback
    stm32f2xx_hal_uart.o(i.HAL_UART_Abort_IT) refers to stm32f2xx_hal_uart.o(i.UART_DMARxAbortCallback) for UART_DMARxAbortCallback
    stm32f2xx_hal_uart.o(i.HAL_UART_DMAStop) refers to stm32f2xx_hal_dma.o(i.HAL_DMA_Abort) for HAL_DMA_Abort
    stm32f2xx_hal_uart.o(i.HAL_UART_DMAStop) refers to stm32f2xx_hal_uart.o(i.UART_EndTxTransfer) for UART_EndTxTransfer
    stm32f2xx_hal_uart.o(i.HAL_UART_DMAStop) refers to stm32f2xx_hal_uart.o(i.UART_EndRxTransfer) for UART_EndRxTransfer
    stm32f2xx_hal_uart.o(i.HAL_UART_DeInit) refers to usart.o(i.HAL_UART_MspDeInit) for HAL_UART_MspDeInit
    stm32f2xx_hal_uart.o(i.HAL_UART_IRQHandler) refers to stm32f2xx_hal_uart.o(i.UART_Receive_IT) for UART_Receive_IT
    stm32f2xx_hal_uart.o(i.HAL_UART_IRQHandler) refers to stm32f2xx_hal_uart.o(i.UART_EndRxTransfer) for UART_EndRxTransfer
    stm32f2xx_hal_uart.o(i.HAL_UART_IRQHandler) refers to stm32f2xx_hal_dma.o(i.HAL_DMA_Abort_IT) for HAL_DMA_Abort_IT
    stm32f2xx_hal_uart.o(i.HAL_UART_IRQHandler) refers to usart.o(i.HAL_UART_ErrorCallback) for HAL_UART_ErrorCallback
    stm32f2xx_hal_uart.o(i.HAL_UART_IRQHandler) refers to stm32f2xx_hal_dma.o(i.HAL_DMA_Abort) for HAL_DMA_Abort
    stm32f2xx_hal_uart.o(i.HAL_UART_IRQHandler) refers to usart.o(i.HAL_UARTEx_RxEventCallback) for HAL_UARTEx_RxEventCallback
    stm32f2xx_hal_uart.o(i.HAL_UART_IRQHandler) refers to usart.o(i.HAL_UART_TxCpltCallback) for HAL_UART_TxCpltCallback
    stm32f2xx_hal_uart.o(i.HAL_UART_IRQHandler) refers to stm32f2xx_hal_uart.o(i.UART_DMAAbortOnError) for UART_DMAAbortOnError
    stm32f2xx_hal_uart.o(i.HAL_UART_Init) refers to usart.o(i.HAL_UART_MspInit) for HAL_UART_MspInit
    stm32f2xx_hal_uart.o(i.HAL_UART_Init) refers to stm32f2xx_hal_uart.o(i.UART_SetConfig) for UART_SetConfig
    stm32f2xx_hal_uart.o(i.HAL_UART_Receive) refers to stm32f2xx_hal.o(i.HAL_GetTick) for HAL_GetTick
    stm32f2xx_hal_uart.o(i.HAL_UART_Receive) refers to stm32f2xx_hal_uart.o(i.UART_WaitOnFlagUntilTimeout) for UART_WaitOnFlagUntilTimeout
    stm32f2xx_hal_uart.o(i.HAL_UART_Receive_DMA) refers to stm32f2xx_hal_uart.o(i.UART_Start_Receive_DMA) for UART_Start_Receive_DMA
    stm32f2xx_hal_uart.o(i.HAL_UART_Receive_IT) refers to stm32f2xx_hal_uart.o(i.UART_Start_Receive_IT) for UART_Start_Receive_IT
    stm32f2xx_hal_uart.o(i.HAL_UART_Transmit) refers to stm32f2xx_hal.o(i.HAL_GetTick) for HAL_GetTick
    stm32f2xx_hal_uart.o(i.HAL_UART_Transmit) refers to stm32f2xx_hal_uart.o(i.UART_WaitOnFlagUntilTimeout) for UART_WaitOnFlagUntilTimeout
    stm32f2xx_hal_uart.o(i.HAL_UART_Transmit_DMA) refers to stm32f2xx_hal_dma.o(i.HAL_DMA_Start_IT) for HAL_DMA_Start_IT
    stm32f2xx_hal_uart.o(i.HAL_UART_Transmit_DMA) refers to stm32f2xx_hal_uart.o(i.UART_DMATransmitCplt) for UART_DMATransmitCplt
    stm32f2xx_hal_uart.o(i.HAL_UART_Transmit_DMA) refers to stm32f2xx_hal_uart.o(i.UART_DMATxHalfCplt) for UART_DMATxHalfCplt
    stm32f2xx_hal_uart.o(i.HAL_UART_Transmit_DMA) refers to stm32f2xx_hal_uart.o(i.UART_DMAError) for UART_DMAError
    stm32f2xx_hal_uart.o(i.UART_DMAAbortOnError) refers to usart.o(i.HAL_UART_ErrorCallback) for HAL_UART_ErrorCallback
    stm32f2xx_hal_uart.o(i.UART_DMAError) refers to stm32f2xx_hal_uart.o(i.UART_EndTxTransfer) for UART_EndTxTransfer
    stm32f2xx_hal_uart.o(i.UART_DMAError) refers to stm32f2xx_hal_uart.o(i.UART_EndRxTransfer) for UART_EndRxTransfer
    stm32f2xx_hal_uart.o(i.UART_DMAError) refers to usart.o(i.HAL_UART_ErrorCallback) for HAL_UART_ErrorCallback
    stm32f2xx_hal_uart.o(i.UART_DMAReceiveCplt) refers to stm32f2xx_hal_uart.o(i.HAL_UART_RxCpltCallback) for HAL_UART_RxCpltCallback
    stm32f2xx_hal_uart.o(i.UART_DMAReceiveCplt) refers to usart.o(i.HAL_UARTEx_RxEventCallback) for HAL_UARTEx_RxEventCallback
    stm32f2xx_hal_uart.o(i.UART_DMARxAbortCallback) refers to stm32f2xx_hal_uart.o(i.HAL_UART_AbortCpltCallback) for HAL_UART_AbortCpltCallback
    stm32f2xx_hal_uart.o(i.UART_DMARxHalfCplt) refers to stm32f2xx_hal_uart.o(i.HAL_UART_RxHalfCpltCallback) for HAL_UART_RxHalfCpltCallback
    stm32f2xx_hal_uart.o(i.UART_DMARxHalfCplt) refers to usart.o(i.HAL_UARTEx_RxEventCallback) for HAL_UARTEx_RxEventCallback
    stm32f2xx_hal_uart.o(i.UART_DMARxOnlyAbortCallback) refers to stm32f2xx_hal_uart.o(i.HAL_UART_AbortReceiveCpltCallback) for HAL_UART_AbortReceiveCpltCallback
    stm32f2xx_hal_uart.o(i.UART_DMATransmitCplt) refers to usart.o(i.HAL_UART_TxCpltCallback) for HAL_UART_TxCpltCallback
    stm32f2xx_hal_uart.o(i.UART_DMATxAbortCallback) refers to stm32f2xx_hal_uart.o(i.HAL_UART_AbortCpltCallback) for HAL_UART_AbortCpltCallback
    stm32f2xx_hal_uart.o(i.UART_DMATxHalfCplt) refers to stm32f2xx_hal_uart.o(i.HAL_UART_TxHalfCpltCallback) for HAL_UART_TxHalfCpltCallback
    stm32f2xx_hal_uart.o(i.UART_DMATxOnlyAbortCallback) refers to stm32f2xx_hal_uart.o(i.HAL_UART_AbortTransmitCpltCallback) for HAL_UART_AbortTransmitCpltCallback
    stm32f2xx_hal_uart.o(i.UART_Receive_IT) refers to stm32f2xx_hal_uart.o(i.HAL_UART_RxCpltCallback) for HAL_UART_RxCpltCallback
    stm32f2xx_hal_uart.o(i.UART_Receive_IT) refers to usart.o(i.HAL_UARTEx_RxEventCallback) for HAL_UARTEx_RxEventCallback
    stm32f2xx_hal_uart.o(i.UART_SetConfig) refers to stm32f2xx_hal_rcc.o(i.HAL_RCC_GetPCLK2Freq) for HAL_RCC_GetPCLK2Freq
    stm32f2xx_hal_uart.o(i.UART_SetConfig) refers to stm32f2xx_hal_rcc.o(i.HAL_RCC_GetPCLK1Freq) for HAL_RCC_GetPCLK1Freq
    stm32f2xx_hal_uart.o(i.UART_Start_Receive_DMA) refers to stm32f2xx_hal_dma.o(i.HAL_DMA_Start_IT) for HAL_DMA_Start_IT
    stm32f2xx_hal_uart.o(i.UART_Start_Receive_DMA) refers to stm32f2xx_hal_uart.o(i.UART_DMAReceiveCplt) for UART_DMAReceiveCplt
    stm32f2xx_hal_uart.o(i.UART_Start_Receive_DMA) refers to stm32f2xx_hal_uart.o(i.UART_DMARxHalfCplt) for UART_DMARxHalfCplt
    stm32f2xx_hal_uart.o(i.UART_Start_Receive_DMA) refers to stm32f2xx_hal_uart.o(i.UART_DMAError) for UART_DMAError
    stm32f2xx_hal_uart.o(i.UART_WaitOnFlagUntilTimeout) refers to stm32f2xx_hal.o(i.HAL_GetTick) for HAL_GetTick
    system_stm32f2xx.o(i.SystemCoreClockUpdate) refers to system_stm32f2xx.o(.data) for .data
    system_stm32f2xx.o(i.SystemCoreClockUpdate) refers to system_stm32f2xx.o(.constdata) for .constdata
    __2sprintf.o(.text) refers to _printf_char_common.o(.text) for _printf_char_common
    __2sprintf.o(.text) refers to _sputc.o(.text) for _sputc
    noretval__2sprintf.o(.text) refers to _printf_char_common.o(.text) for _printf_char_common
    noretval__2sprintf.o(.text) refers to _sputc.o(.text) for _sputc
    __printf.o(.text) refers to _printf_percent.o(.ARM.Collect$$_printf_percent$$00000000) for _printf_percent
    _printf_str.o(.text) refers (Special) to _printf_char.o(.text) for _printf_cs_common
    _printf_str.o(.text) refers (Weak) to _printf_pad.o(.text) for _printf_pre_padding
    _printf_str.o(.text) refers (Weak) to _printf_pad.o(.text) for _printf_post_padding
    _printf_dec.o(.text) refers to _printf_intcommon.o(.text) for _printf_int_common
    _printf_hex_ll.o(.text) refers to _printf_intcommon.o(.text) for _printf_int_common
    _printf_hex_ll.o(.text) refers to _printf_hex_ll.o(.constdata) for .constdata
    _printf_hex_int.o(.text) refers to _printf_intcommon.o(.text) for _printf_int_common
    _printf_hex_int.o(.text) refers to _printf_hex_int.o(.constdata) for .constdata
    _printf_hex_int_ll.o(.text) refers to _printf_intcommon.o(.text) for _printf_int_common
    _printf_hex_int_ll.o(.text) refers to _printf_hex_int_ll.o(.constdata) for .constdata
    _printf_hex_ptr.o(.text) refers to _printf_intcommon.o(.text) for _printf_int_common
    _printf_hex_ptr.o(.text) refers to _printf_hex_ptr.o(.constdata) for .constdata
    _printf_hex_int_ptr.o(.text) refers to _printf_intcommon.o(.text) for _printf_int_common
    _printf_hex_int_ptr.o(.text) refers to _printf_hex_int_ptr.o(.constdata) for .constdata
    _printf_hex_ll_ptr.o(.text) refers to _printf_intcommon.o(.text) for _printf_int_common
    _printf_hex_ll_ptr.o(.text) refers to _printf_hex_ll_ptr.o(.constdata) for .constdata
    _printf_hex_int_ll_ptr.o(.text) refers to _printf_intcommon.o(.text) for _printf_int_common
    _printf_hex_int_ll_ptr.o(.text) refers to _printf_hex_int_ll_ptr.o(.constdata) for .constdata
    __printf_flags.o(.text) refers to _printf_percent.o(.ARM.Collect$$_printf_percent$$00000000) for _printf_percent
    __printf_flags.o(.text) refers to __printf_flags.o(.constdata) for .constdata
    __printf_ss.o(.text) refers to _printf_percent.o(.ARM.Collect$$_printf_percent$$00000000) for _printf_percent
    __printf_flags_ss.o(.text) refers to _printf_percent.o(.ARM.Collect$$_printf_percent$$00000000) for _printf_percent
    __printf_flags_ss.o(.text) refers to __printf_flags_ss.o(.constdata) for .constdata
    __printf_wp.o(.text) refers to __printf_wp.o(i._is_digit) for _is_digit
    __printf_wp.o(.text) refers to _printf_percent.o(.ARM.Collect$$_printf_percent$$00000000) for _printf_percent
    __printf_flags_wp.o(.text) refers to __printf_wp.o(i._is_digit) for _is_digit
    __printf_flags_wp.o(.text) refers to _printf_percent.o(.ARM.Collect$$_printf_percent$$00000000) for _printf_percent
    __printf_flags_wp.o(.text) refers to __printf_flags_wp.o(.constdata) for .constdata
    __printf_ss_wp.o(.text) refers to __printf_wp.o(i._is_digit) for _is_digit
    __printf_ss_wp.o(.text) refers to _printf_percent.o(.ARM.Collect$$_printf_percent$$00000000) for _printf_percent
    __printf_flags_ss_wp.o(.text) refers to __printf_wp.o(i._is_digit) for _is_digit
    __printf_flags_ss_wp.o(.text) refers to _printf_percent.o(.ARM.Collect$$_printf_percent$$00000000) for _printf_percent
    __printf_flags_ss_wp.o(.text) refers to __printf_flags_ss_wp.o(.constdata) for .constdata
    _printf_s.o(.ARM.Collect$$_printf_percent$$00000014) refers (Weak) to _printf_char.o(.text) for _printf_string
    _printf_x.o(.ARM.Collect$$_printf_percent$$0000000C) refers (Weak) to _printf_hex_int.o(.text) for _printf_int_hex
    _printf_d.o(.ARM.Collect$$_printf_percent$$00000009) refers (Weak) to _printf_dec.o(.text) for _printf_int_dec
    _printf_f.o(.ARM.Collect$$_printf_percent$$00000003) refers (Weak) to printf1.o(x$fpl$printf1) for _printf_fp_dec
    _printf_percent.o(.ARM.Collect$$_printf_percent$$00000000) refers (Special) to _printf_percent_end.o(.ARM.Collect$$_printf_percent$$00000017) for _printf_percent_end
    __main.o(!!!main) refers to __rtentry.o(.ARM.Collect$$rtentry$$00000000) for __rt_entry
    d2f.o(x$fpl$d2f) refers (Special) to usenofp.o(x$fpl$usenofp) for __I$use$fp
    d2f.o(x$fpl$d2f) refers to fretinf.o(x$fpl$fretinf) for __fpl_fretinf
    d2f.o(x$fpl$d2f) refers to dnaninf.o(x$fpl$dnaninf) for __fpl_dnaninf
    daddsub_clz.o(x$fpl$dadd) refers (Special) to usenofp.o(x$fpl$usenofp) for __I$use$fp
    daddsub_clz.o(x$fpl$dadd) refers to daddsub_clz.o(x$fpl$dsub) for _dsub1
    daddsub_clz.o(x$fpl$dadd) refers to dretinf.o(x$fpl$dretinf) for __fpl_dretinf
    daddsub_clz.o(x$fpl$dadd) refers to dnaninf.o(x$fpl$dnaninf) for __fpl_dnaninf
    daddsub_clz.o(x$fpl$drsb) refers (Special) to usenofp.o(x$fpl$usenofp) for __I$use$fp
    daddsub_clz.o(x$fpl$drsb) refers to daddsub_clz.o(x$fpl$dadd) for _dadd1
    daddsub_clz.o(x$fpl$drsb) refers to daddsub_clz.o(x$fpl$dsub) for _dsub1
    daddsub_clz.o(x$fpl$dsub) refers (Special) to usenofp.o(x$fpl$usenofp) for __I$use$fp
    daddsub_clz.o(x$fpl$dsub) refers to daddsub_clz.o(x$fpl$dadd) for _dadd1
    daddsub_clz.o(x$fpl$dsub) refers to dnaninf.o(x$fpl$dnaninf) for __fpl_dnaninf
    ddiv.o(x$fpl$drdiv) refers (Special) to usenofp.o(x$fpl$usenofp) for __I$use$fp
    ddiv.o(x$fpl$drdiv) refers to ddiv.o(x$fpl$ddiv) for ddiv_entry
    ddiv.o(x$fpl$ddiv) refers (Special) to usenofp.o(x$fpl$usenofp) for __I$use$fp
    ddiv.o(x$fpl$ddiv) refers to dretinf.o(x$fpl$dretinf) for __fpl_dretinf
    ddiv.o(x$fpl$ddiv) refers to dnaninf.o(x$fpl$dnaninf) for __fpl_dnaninf
    dfix.o(x$fpl$dfix) refers (Special) to usenofp.o(x$fpl$usenofp) for __I$use$fp
    dfix.o(x$fpl$dfix) refers to dnaninf.o(x$fpl$dnaninf) for __fpl_dnaninf
    dfix.o(x$fpl$dfixr) refers (Special) to usenofp.o(x$fpl$usenofp) for __I$use$fp
    dfix.o(x$fpl$dfixr) refers to dnaninf.o(x$fpl$dnaninf) for __fpl_dnaninf
    dfixu.o(x$fpl$dfixu) refers (Special) to usenofp.o(x$fpl$usenofp) for __I$use$fp
    dfixu.o(x$fpl$dfixu) refers to dnaninf.o(x$fpl$dnaninf) for __fpl_dnaninf
    dfixu.o(x$fpl$dfixur) refers (Special) to usenofp.o(x$fpl$usenofp) for __I$use$fp
    dfixu.o(x$fpl$dfixur) refers to dnaninf.o(x$fpl$dnaninf) for __fpl_dnaninf
    dflt_clz.o(x$fpl$dfltu) refers (Special) to usenofp.o(x$fpl$usenofp) for __I$use$fp
    dflt_clz.o(x$fpl$dflt) refers (Special) to usenofp.o(x$fpl$usenofp) for __I$use$fp
    dflt_clz.o(x$fpl$dfltn) refers (Special) to usenofp.o(x$fpl$usenofp) for __I$use$fp
    dmul.o(x$fpl$dmul) refers (Special) to usenofp.o(x$fpl$usenofp) for __I$use$fp
    dmul.o(x$fpl$dmul) refers to dretinf.o(x$fpl$dretinf) for __fpl_dretinf
    dmul.o(x$fpl$dmul) refers to dnaninf.o(x$fpl$dnaninf) for __fpl_dnaninf
    f2d.o(x$fpl$f2d) refers (Special) to usenofp.o(x$fpl$usenofp) for __I$use$fp
    f2d.o(x$fpl$f2d) refers to fnaninf.o(x$fpl$fnaninf) for __fpl_fnaninf
    f2d.o(x$fpl$f2d) refers to dretinf.o(x$fpl$dretinf) for __fpl_dretinf
    faddsub_clz.o(x$fpl$fadd) refers (Special) to usenofp.o(x$fpl$usenofp) for __I$use$fp
    faddsub_clz.o(x$fpl$fadd) refers to faddsub_clz.o(x$fpl$fsub) for _fsub1
    faddsub_clz.o(x$fpl$fadd) refers to fretinf.o(x$fpl$fretinf) for __fpl_fretinf
    faddsub_clz.o(x$fpl$fadd) refers to fnaninf.o(x$fpl$fnaninf) for __fpl_fnaninf
    faddsub_clz.o(x$fpl$frsb) refers (Special) to usenofp.o(x$fpl$usenofp) for __I$use$fp
    faddsub_clz.o(x$fpl$frsb) refers to faddsub_clz.o(x$fpl$fadd) for _fadd1
    faddsub_clz.o(x$fpl$frsb) refers to faddsub_clz.o(x$fpl$fsub) for _fsub1
    faddsub_clz.o(x$fpl$fsub) refers (Special) to usenofp.o(x$fpl$usenofp) for __I$use$fp
    faddsub_clz.o(x$fpl$fsub) refers to faddsub_clz.o(x$fpl$fadd) for _fadd1
    faddsub_clz.o(x$fpl$fsub) refers to fnaninf.o(x$fpl$fnaninf) for __fpl_fnaninf
    fdiv.o(x$fpl$frdiv) refers (Special) to usenofp.o(x$fpl$usenofp) for __I$use$fp
    fdiv.o(x$fpl$frdiv) refers to fdiv.o(x$fpl$fdiv) for _fdiv1
    fdiv.o(x$fpl$fdiv) refers (Special) to usenofp.o(x$fpl$usenofp) for __I$use$fp
    fdiv.o(x$fpl$fdiv) refers to fretinf.o(x$fpl$fretinf) for __fpl_fretinf
    fdiv.o(x$fpl$fdiv) refers to fnaninf.o(x$fpl$fnaninf) for __fpl_fnaninf
    ffix.o(x$fpl$ffix) refers (Special) to usenofp.o(x$fpl$usenofp) for __I$use$fp
    ffix.o(x$fpl$ffix) refers to fnaninf.o(x$fpl$fnaninf) for __fpl_fnaninf
    ffix.o(x$fpl$ffixr) refers (Special) to usenofp.o(x$fpl$usenofp) for __I$use$fp
    ffix.o(x$fpl$ffixr) refers to fnaninf.o(x$fpl$fnaninf) for __fpl_fnaninf
    fflt_clz.o(x$fpl$ffltu) refers (Special) to usenofp.o(x$fpl$usenofp) for __I$use$fp
    fflt_clz.o(x$fpl$fflt) refers (Special) to usenofp.o(x$fpl$usenofp) for __I$use$fp
    fflt_clz.o(x$fpl$ffltn) refers (Special) to usenofp.o(x$fpl$usenofp) for __I$use$fp
    fmul.o(x$fpl$fmul) refers (Special) to usenofp.o(x$fpl$usenofp) for __I$use$fp
    fmul.o(x$fpl$fmul) refers to fretinf.o(x$fpl$fretinf) for __fpl_fretinf
    fmul.o(x$fpl$fmul) refers to fnaninf.o(x$fpl$fnaninf) for __fpl_fnaninf
    printf1.o(x$fpl$printf1) refers to _printf_fp_dec.o(.text) for _printf_fp_dec_real
    scalbn.o(x$fpl$scalbn) refers (Special) to usenofp.o(x$fpl$usenofp) for __I$use$fp
    scalbn.o(x$fpl$scalbn) refers to dcheck1.o(x$fpl$dcheck1) for __fpl_dcheck_NaN1
    __rtentry.o(.ARM.Collect$$rtentry$$00000000) refers (Special) to __rtentry2.o(.ARM.Collect$$rtentry$$0000000A) for __rt_entry_li
    __rtentry.o(.ARM.Collect$$rtentry$$00000000) refers (Special) to __rtentry2.o(.ARM.Collect$$rtentry$$0000000D) for __rt_entry_main
    __rtentry.o(.ARM.Collect$$rtentry$$00000000) refers (Special) to __rtentry2.o(.ARM.Collect$$rtentry$$0000000C) for __rt_entry_postli_1
    __rtentry.o(.ARM.Collect$$rtentry$$00000000) refers (Special) to __rtentry2.o(.ARM.Collect$$rtentry$$00000009) for __rt_entry_postsh_1
    __rtentry.o(.ARM.Collect$$rtentry$$00000000) refers (Special) to __rtentry2.o(.ARM.Collect$$rtentry$$00000002) for __rt_entry_presh_1
    __rtentry.o(.ARM.Collect$$rtentry$$00000000) refers (Special) to __rtentry4.o(.ARM.Collect$$rtentry$$00000004) for __rt_entry_sh
    aeabi_ldiv0_sigfpe.o(.text) refers to rt_div0.o(.text) for __rt_div0
    _printf_intcommon.o(.text) refers (Weak) to _printf_pad.o(.text) for _printf_pre_padding
    _printf_intcommon.o(.text) refers (Weak) to _printf_pad.o(.text) for _printf_pre_padding
    _printf_intcommon.o(.text) refers (Weak) to _printf_pad.o(.text) for _printf_post_padding
    _printf_fp_dec.o(.text) refers (Special) to usenofp.o(x$fpl$usenofp) for __I$use$fp
    _printf_fp_dec.o(.text) refers (Special) to lc_numeric_c.o(locale$$code) for _get_lc_numeric
    _printf_fp_dec.o(.text) refers to bigflt0.o(.text) for _btod_etento
    _printf_fp_dec.o(.text) refers to btod.o(CL$$btod_d2e) for _btod_d2e
    _printf_fp_dec.o(.text) refers to btod.o(CL$$btod_ediv) for _btod_ediv
    _printf_fp_dec.o(.text) refers to btod.o(CL$$btod_emul) for _btod_emul
    _printf_fp_dec.o(.text) refers to lludiv10.o(.text) for _ll_udiv10
    _printf_fp_dec.o(.text) refers to fpclassify.o(i.__ARM_fpclassify) for __ARM_fpclassify
    _printf_fp_dec.o(.text) refers to _printf_fp_infnan.o(.text) for _printf_fp_infnan
    _printf_fp_dec.o(.text) refers (Weak) to _printf_pad.o(.text) for _printf_pre_padding
    _printf_fp_dec.o(.text) refers (Weak) to _printf_pad.o(.text) for _printf_pre_padding
    _printf_fp_dec.o(.text) refers to rt_locale_intlibspace.o(.text) for __rt_locale
    _printf_fp_dec.o(.text) refers (Weak) to _printf_pad.o(.text) for _printf_post_padding
    _printf_char_common.o(.text) refers to __printf_flags_wp.o(.text) for __printf
    _printf_char.o(.text) refers (Weak) to _printf_str.o(.text) for _printf_str
    dcheck1.o(x$fpl$dcheck1) refers (Special) to usenofp.o(x$fpl$usenofp) for __I$use$fp
    dcheck1.o(x$fpl$dcheck1) refers to retnan.o(x$fpl$retnan) for __fpl_return_NaN
    dnaninf.o(x$fpl$dnaninf) refers (Special) to usenofp.o(x$fpl$usenofp) for __I$use$fp
    dretinf.o(x$fpl$dretinf) refers (Special) to usenofp.o(x$fpl$usenofp) for __I$use$fp
    fnaninf.o(x$fpl$fnaninf) refers (Special) to usenofp.o(x$fpl$usenofp) for __I$use$fp
    fretinf.o(x$fpl$fretinf) refers (Special) to usenofp.o(x$fpl$usenofp) for __I$use$fp
    __rtentry2.o(.ARM.Collect$$rtentry$$00000008) refers to boardinit2.o(.text) for _platform_post_stackheap_init
    __rtentry2.o(.ARM.Collect$$rtentry$$0000000A) refers to libinit.o(.ARM.Collect$$libinit$$00000000) for __rt_lib_init
    __rtentry2.o(.ARM.Collect$$rtentry$$0000000B) refers to boardinit3.o(.text) for _platform_post_lib_init
    __rtentry2.o(.ARM.Collect$$rtentry$$0000000D) refers to main.o(i.main) for main
    __rtentry2.o(.ARM.Collect$$rtentry$$0000000D) refers to exit.o(.text) for exit
    __rtentry2.o(.ARM.exidx) refers to __rtentry2.o(.ARM.Collect$$rtentry$$00000001) for .ARM.Collect$$rtentry$$00000001
    __rtentry2.o(.ARM.exidx) refers to __rtentry2.o(.ARM.Collect$$rtentry$$00000008) for .ARM.Collect$$rtentry$$00000008
    __rtentry2.o(.ARM.exidx) refers to __rtentry2.o(.ARM.Collect$$rtentry$$0000000A) for .ARM.Collect$$rtentry$$0000000A
    __rtentry2.o(.ARM.exidx) refers to __rtentry2.o(.ARM.Collect$$rtentry$$0000000B) for .ARM.Collect$$rtentry$$0000000B
    __rtentry2.o(.ARM.exidx) refers to __rtentry2.o(.ARM.Collect$$rtentry$$0000000D) for .ARM.Collect$$rtentry$$0000000D
    __rtentry4.o(.ARM.Collect$$rtentry$$00000004) refers to sys_stackheap_outer.o(.text) for __user_setup_stackheap
    __rtentry4.o(.ARM.exidx) refers to __rtentry4.o(.ARM.Collect$$rtentry$$00000004) for .ARM.Collect$$rtentry$$00000004
    rt_div0.o(.text) refers to defsig_fpe_outer.o(.text) for __rt_SIGFPE
    rt_locale.o(.text) refers to rt_locale.o(.bss) for __rt_locale_data
    rt_locale_intlibspace.o(.text) refers to libspace.o(.bss) for __libspace_start
    _printf_fp_infnan.o(.text) refers (Weak) to _printf_pad.o(.text) for _printf_pre_padding
    _printf_fp_infnan.o(.text) refers (Weak) to _printf_pad.o(.text) for _printf_post_padding
    bigflt0.o(.text) refers (Special) to usenofp.o(x$fpl$usenofp) for __I$use$fp
    bigflt0.o(.text) refers to btod.o(CL$$btod_emul) for _btod_emul
    bigflt0.o(.text) refers to btod.o(CL$$btod_ediv) for _btod_ediv
    bigflt0.o(.text) refers to bigflt0.o(.constdata) for .constdata
    bigflt0.o(.constdata) refers (Special) to usenofp.o(x$fpl$usenofp) for __I$use$fp
    btod.o(CL$$btod_d2e) refers (Special) to usenofp.o(x$fpl$usenofp) for __I$use$fp
    btod.o(CL$$btod_d2e) refers to btod.o(CL$$btod_d2e_norm_op1) for _d2e_norm_op1
    btod.o(CL$$btod_d2e_norm_op1) refers (Special) to usenofp.o(x$fpl$usenofp) for __I$use$fp
    btod.o(CL$$btod_d2e_norm_op1) refers to btod.o(CL$$btod_d2e_denorm_low) for _d2e_denorm_low
    btod.o(CL$$btod_d2e_denorm_low) refers (Special) to usenofp.o(x$fpl$usenofp) for __I$use$fp
    btod.o(CL$$btod_emul) refers (Special) to usenofp.o(x$fpl$usenofp) for __I$use$fp
    btod.o(CL$$btod_emul) refers to btod.o(CL$$btod_mult_common) for __btod_mult_common
    btod.o(CL$$btod_emul) refers to btod.o(CL$$btod_e2e) for _e2e
    btod.o(CL$$btod_ediv) refers (Special) to usenofp.o(x$fpl$usenofp) for __I$use$fp
    btod.o(CL$$btod_ediv) refers to btod.o(CL$$btod_div_common) for __btod_div_common
    btod.o(CL$$btod_ediv) refers to btod.o(CL$$btod_e2e) for _e2e
    btod.o(CL$$btod_emuld) refers (Special) to usenofp.o(x$fpl$usenofp) for __I$use$fp
    btod.o(CL$$btod_emuld) refers to btod.o(CL$$btod_mult_common) for __btod_mult_common
    btod.o(CL$$btod_emuld) refers to btod.o(CL$$btod_e2d) for _e2d
    btod.o(CL$$btod_edivd) refers (Special) to usenofp.o(x$fpl$usenofp) for __I$use$fp
    btod.o(CL$$btod_edivd) refers to btod.o(CL$$btod_div_common) for __btod_div_common
    btod.o(CL$$btod_edivd) refers to btod.o(CL$$btod_e2d) for _e2d
    btod.o(CL$$btod_e2e) refers (Special) to usenofp.o(x$fpl$usenofp) for __I$use$fp
    btod.o(CL$$btod_e2d) refers (Special) to usenofp.o(x$fpl$usenofp) for __I$use$fp
    btod.o(CL$$btod_e2d) refers to btod.o(CL$$btod_e2e) for _e2e
    btod.o(CL$$btod_mult_common) refers (Special) to usenofp.o(x$fpl$usenofp) for __I$use$fp
    btod.o(CL$$btod_div_common) refers (Special) to usenofp.o(x$fpl$usenofp) for __I$use$fp
    lc_numeric_c.o(locale$$data) refers (Special) to libinit2.o(.ARM.Collect$$libinit$$00000016) for __rt_lib_init_lc_numeric_2
    lc_numeric_c.o(locale$$code) refers (Special) to libinit2.o(.ARM.Collect$$libinit$$00000016) for __rt_lib_init_lc_numeric_2
    lc_numeric_c.o(locale$$code) refers to strcmpv7m.o(.text) for strcmp
    lc_numeric_c.o(locale$$code) refers to lc_numeric_c.o(locale$$data) for __lcnum_c_name
    istatus.o(x$fpl$ieeestatus) refers (Special) to usenofp.o(x$fpl$usenofp) for __I$use$fp
    retnan.o(x$fpl$retnan) refers (Special) to usenofp.o(x$fpl$usenofp) for __I$use$fp
    retnan.o(x$fpl$retnan) refers to trapv.o(x$fpl$trapveneer) for __fpl_cmpreturn
    fpclassify.o(i.__ARM_fpclassify) refers (Special) to usenofp.o(x$fpl$usenofp) for __I$use$fp
    libspace.o(.text) refers to libspace.o(.bss) for __libspace_start
    sys_stackheap_outer.o(.text) refers to libspace.o(.text) for __user_perproc_libspace
    sys_stackheap_outer.o(.text) refers to startup_stm32f205xx.o(.text) for __user_initial_stackheap
    exit.o(.text) refers to rtexit.o(.ARM.Collect$$rtexit$$00000000) for __rt_exit
    defsig_fpe_outer.o(.text) refers to defsig_fpe_inner.o(.text) for __rt_SIGFPE_inner
    defsig_fpe_outer.o(.text) refers to defsig_exit.o(.text) for __sig_exit
    defsig_fpe_formal.o(.text) refers to rt_raise.o(.text) for __rt_raise
    libinit.o(.ARM.Collect$$libinit$$00000000) refers (Special) to libinit2.o(.ARM.Collect$$libinit$$0000002E) for __rt_lib_init_alloca_1
    libinit.o(.ARM.Collect$$libinit$$00000000) refers (Special) to libinit2.o(.ARM.Collect$$libinit$$0000002C) for __rt_lib_init_argv_1
    libinit.o(.ARM.Collect$$libinit$$00000000) refers (Special) to libinit2.o(.ARM.Collect$$libinit$$0000001B) for __rt_lib_init_atexit_1
    libinit.o(.ARM.Collect$$libinit$$00000000) refers (Special) to libinit2.o(.ARM.Collect$$libinit$$00000021) for __rt_lib_init_clock_1
    libinit.o(.ARM.Collect$$libinit$$00000000) refers (Special) to libinit2.o(.ARM.Collect$$libinit$$00000032) for __rt_lib_init_cpp_1
    libinit.o(.ARM.Collect$$libinit$$00000000) refers (Special) to libinit2.o(.ARM.Collect$$libinit$$00000030) for __rt_lib_init_exceptions_1
    libinit.o(.ARM.Collect$$libinit$$00000000) refers (Special) to libinit2.o(.ARM.Collect$$libinit$$00000002) for __rt_lib_init_fp_1
    libinit.o(.ARM.Collect$$libinit$$00000000) refers (Special) to libinit2.o(.ARM.Collect$$libinit$$0000001F) for __rt_lib_init_fp_trap_1
    libinit.o(.ARM.Collect$$libinit$$00000000) refers (Special) to libinit2.o(.ARM.Collect$$libinit$$00000023) for __rt_lib_init_getenv_1
    libinit.o(.ARM.Collect$$libinit$$00000000) refers (Special) to libinit2.o(.ARM.Collect$$libinit$$0000000A) for __rt_lib_init_heap_1
    libinit.o(.ARM.Collect$$libinit$$00000000) refers (Special) to libinit2.o(.ARM.Collect$$libinit$$00000011) for __rt_lib_init_lc_collate_1
    libinit.o(.ARM.Collect$$libinit$$00000000) refers (Special) to libinit2.o(.ARM.Collect$$libinit$$00000013) for __rt_lib_init_lc_ctype_1
    libinit.o(.ARM.Collect$$libinit$$00000000) refers (Special) to libinit2.o(.ARM.Collect$$libinit$$00000015) for __rt_lib_init_lc_monetary_1
    libinit.o(.ARM.Collect$$libinit$$00000000) refers (Special) to libinit2.o(.ARM.Collect$$libinit$$00000017) for __rt_lib_init_lc_numeric_1
    libinit.o(.ARM.Collect$$libinit$$00000000) refers (Special) to libinit2.o(.ARM.Collect$$libinit$$00000019) for __rt_lib_init_lc_time_1
    libinit.o(.ARM.Collect$$libinit$$00000000) refers (Special) to libinit2.o(.ARM.Collect$$libinit$$00000004) for __rt_lib_init_preinit_1
    libinit.o(.ARM.Collect$$libinit$$00000000) refers (Special) to libinit2.o(.ARM.Collect$$libinit$$0000000E) for __rt_lib_init_rand_1
    libinit.o(.ARM.Collect$$libinit$$00000000) refers (Special) to libinit2.o(.ARM.Collect$$libinit$$00000033) for __rt_lib_init_return
    libinit.o(.ARM.Collect$$libinit$$00000000) refers (Special) to libinit2.o(.ARM.Collect$$libinit$$0000001D) for __rt_lib_init_signal_1
    libinit.o(.ARM.Collect$$libinit$$00000000) refers (Special) to libinit2.o(.ARM.Collect$$libinit$$00000025) for __rt_lib_init_stdio_1
    libinit.o(.ARM.Collect$$libinit$$00000000) refers (Special) to libinit2.o(.ARM.Collect$$libinit$$0000000C) for __rt_lib_init_user_alloc_1
    libinit2.o(.ARM.Collect$$libinit$$0000000F) refers (Weak) to rt_locale_intlibspace.o(.text) for __rt_locale
    libinit2.o(.ARM.Collect$$libinit$$00000010) refers to libinit2.o(.ARM.Collect$$libinit$$0000000F) for .ARM.Collect$$libinit$$0000000F
    libinit2.o(.ARM.Collect$$libinit$$00000012) refers to libinit2.o(.ARM.Collect$$libinit$$0000000F) for .ARM.Collect$$libinit$$0000000F
    libinit2.o(.ARM.Collect$$libinit$$00000014) refers to libinit2.o(.ARM.Collect$$libinit$$0000000F) for .ARM.Collect$$libinit$$0000000F
    libinit2.o(.ARM.Collect$$libinit$$00000016) refers to libinit2.o(.ARM.Collect$$libinit$$0000000F) for .ARM.Collect$$libinit$$0000000F
    libinit2.o(.ARM.Collect$$libinit$$00000016) refers (Weak) to lc_numeric_c.o(locale$$code) for _get_lc_numeric
    libinit2.o(.ARM.Collect$$libinit$$00000018) refers to libinit2.o(.ARM.Collect$$libinit$$0000000F) for .ARM.Collect$$libinit$$0000000F
    libinit2.o(.ARM.Collect$$libinit$$00000026) refers to argv_veneer.o(.emb_text) for __ARM_argv_veneer
    libinit2.o(.ARM.Collect$$libinit$$00000027) refers to argv_veneer.o(.emb_text) for __ARM_argv_veneer
    trapv.o(x$fpl$trapveneer) refers (Special) to usenofp.o(x$fpl$usenofp) for __I$use$fp
    rtexit.o(.ARM.Collect$$rtexit$$00000000) refers (Special) to rtexit2.o(.ARM.Collect$$rtexit$$00000004) for __rt_exit_exit
    rtexit.o(.ARM.Collect$$rtexit$$00000000) refers (Special) to rtexit2.o(.ARM.Collect$$rtexit$$00000003) for __rt_exit_ls
    rtexit.o(.ARM.Collect$$rtexit$$00000000) refers (Special) to rtexit2.o(.ARM.Collect$$rtexit$$00000002) for __rt_exit_prels_1
    rtexit.o(.ARM.exidx) refers (Special) to rtexit2.o(.ARM.Collect$$rtexit$$00000004) for __rt_exit_exit
    rtexit.o(.ARM.exidx) refers (Special) to rtexit2.o(.ARM.Collect$$rtexit$$00000003) for __rt_exit_ls
    rtexit.o(.ARM.exidx) refers (Special) to rtexit2.o(.ARM.Collect$$rtexit$$00000002) for __rt_exit_prels_1
    rtexit.o(.ARM.exidx) refers to rtexit.o(.ARM.Collect$$rtexit$$00000000) for .ARM.Collect$$rtexit$$00000000
    rt_raise.o(.text) refers to __raise.o(.text) for __raise
    rt_raise.o(.text) refers to sys_exit.o(.text) for _sys_exit
    defsig_exit.o(.text) refers to sys_exit.o(.text) for _sys_exit
    defsig_fpe_inner.o(.text) refers to defsig_general.o(.text) for __default_signal_display
    argv_veneer.o(.emb_text) refers to no_argv.o(.text) for __ARM_get_argv
    sys_exit.o(.text) refers (Special) to use_no_semi.o(.text) for __I$use$semihosting
    sys_exit.o(.text) refers (Special) to indicate_semi.o(.text) for __semihosting_library_function
    rtexit2.o(.ARM.Collect$$rtexit$$00000003) refers to libshutdown.o(.ARM.Collect$$libshutdown$$00000000) for __rt_lib_shutdown
    rtexit2.o(.ARM.Collect$$rtexit$$00000004) refers to sys_exit.o(.text) for _sys_exit
    rtexit2.o(.ARM.exidx) refers to rtexit2.o(.ARM.Collect$$rtexit$$00000001) for .ARM.Collect$$rtexit$$00000001
    rtexit2.o(.ARM.exidx) refers to rtexit2.o(.ARM.Collect$$rtexit$$00000003) for .ARM.Collect$$rtexit$$00000003
    rtexit2.o(.ARM.exidx) refers to rtexit2.o(.ARM.Collect$$rtexit$$00000004) for .ARM.Collect$$rtexit$$00000004
    __raise.o(.text) refers to defsig.o(CL$$defsig) for __default_signal_handler
    defsig_general.o(.text) refers to sys_wrch.o(.text) for _ttywrch
    _get_argv_nomalloc.o(.text) refers (Special) to hrguard.o(.text) for __heap_region$guard
    _get_argv_nomalloc.o(.text) refers to defsig_rtmem_outer.o(.text) for __rt_SIGRTMEM
    _get_argv_nomalloc.o(.text) refers to sys_command.o(.text) for _sys_command_string
    sys_wrch.o(.text) refers (Special) to use_no_semi.o(.text) for __I$use$semihosting
    sys_wrch.o(.text) refers (Special) to indicate_semi.o(.text) for __semihosting_library_function
    sys_command.o(.text) refers (Special) to use_no_semi.o(.text) for __I$use$semihosting
    sys_command.o(.text) refers (Special) to indicate_semi.o(.text) for __semihosting_library_function
    defsig_rtmem_outer.o(.text) refers to defsig_rtmem_inner.o(.text) for __rt_SIGRTMEM_inner
    defsig_rtmem_outer.o(.text) refers to defsig_exit.o(.text) for __sig_exit
    defsig_rtmem_formal.o(.text) refers to rt_raise.o(.text) for __rt_raise
    defsig.o(CL$$defsig) refers to defsig_fpe_inner.o(.text) for __rt_SIGFPE_inner
    defsig.o(CL$$defsig) refers to defsig_rtmem_inner.o(.text) for __rt_SIGRTMEM_inner
    libshutdown.o(.ARM.Collect$$libshutdown$$00000000) refers (Special) to libshutdown2.o(.ARM.Collect$$libshutdown$$00000004) for __rt_lib_shutdown_cpp_1
    libshutdown.o(.ARM.Collect$$libshutdown$$00000000) refers (Special) to libshutdown2.o(.ARM.Collect$$libshutdown$$00000002) for __rt_lib_shutdown_fini_1
    libshutdown.o(.ARM.Collect$$libshutdown$$00000000) refers (Special) to libshutdown2.o(.ARM.Collect$$libshutdown$$00000009) for __rt_lib_shutdown_fp_trap_1
    libshutdown.o(.ARM.Collect$$libshutdown$$00000000) refers (Special) to libshutdown2.o(.ARM.Collect$$libshutdown$$00000011) for __rt_lib_shutdown_heap_1
    libshutdown.o(.ARM.Collect$$libshutdown$$00000000) refers (Special) to libshutdown2.o(.ARM.Collect$$libshutdown$$00000012) for __rt_lib_shutdown_return
    libshutdown.o(.ARM.Collect$$libshutdown$$00000000) refers (Special) to libshutdown2.o(.ARM.Collect$$libshutdown$$0000000C) for __rt_lib_shutdown_signal_1
    libshutdown.o(.ARM.Collect$$libshutdown$$00000000) refers (Special) to libshutdown2.o(.ARM.Collect$$libshutdown$$00000006) for __rt_lib_shutdown_stdio_1
    libshutdown.o(.ARM.Collect$$libshutdown$$00000000) refers (Special) to libshutdown2.o(.ARM.Collect$$libshutdown$$0000000E) for __rt_lib_shutdown_user_alloc_1
    defsig_abrt_inner.o(.text) refers to defsig_general.o(.text) for __default_signal_display
    defsig_rtred_inner.o(.text) refers to defsig_general.o(.text) for __default_signal_display
    defsig_rtmem_inner.o(.text) refers to defsig_general.o(.text) for __default_signal_display
    defsig_stak_inner.o(.text) refers to defsig_general.o(.text) for __default_signal_display
    defsig_pvfn_inner.o(.text) refers to defsig_general.o(.text) for __default_signal_display
    defsig_cppl_inner.o(.text) refers to defsig_general.o(.text) for __default_signal_display
    defsig_segv_inner.o(.text) refers to defsig_general.o(.text) for __default_signal_display
    defsig_other.o(.text) refers to defsig_general.o(.text) for __default_signal_display


==============================================================================

Removing Unused input sections from the image.

    Removing main.o(.rev16_text), (4 bytes).
    Removing main.o(.revsh_text), (4 bytes).
    Removing main.o(.rrx_text), (6 bytes).
    Removing gpio.o(.rev16_text), (4 bytes).
    Removing gpio.o(.revsh_text), (4 bytes).
    Removing gpio.o(.rrx_text), (6 bytes).
    Removing adc.o(.rev16_text), (4 bytes).
    Removing adc.o(.revsh_text), (4 bytes).
    Removing adc.o(.rrx_text), (6 bytes).
    Removing adc.o(i.HAL_ADC_MspDeInit), (60 bytes).
    Removing dma.o(.rev16_text), (4 bytes).
    Removing dma.o(.revsh_text), (4 bytes).
    Removing dma.o(.rrx_text), (6 bytes).
    Removing iwdg.o(.rev16_text), (4 bytes).
    Removing iwdg.o(.revsh_text), (4 bytes).
    Removing iwdg.o(.rrx_text), (6 bytes).
    Removing iwdg.o(.bss), (12 bytes).
    Removing rtc.o(.rev16_text), (4 bytes).
    Removing rtc.o(.revsh_text), (4 bytes).
    Removing rtc.o(.rrx_text), (6 bytes).
    Removing rtc.o(i.HAL_RTC_MspDeInit), (24 bytes).
    Removing spi.o(.rev16_text), (4 bytes).
    Removing spi.o(.revsh_text), (4 bytes).
    Removing spi.o(.rrx_text), (6 bytes).
    Removing spi.o(i.HAL_SPI_MspDeInit), (44 bytes).
    Removing tim.o(.rev16_text), (4 bytes).
    Removing tim.o(.revsh_text), (4 bytes).
    Removing tim.o(.rrx_text), (6 bytes).
    Removing tim.o(i.HAL_TIM_Base_MspDeInit), (52 bytes).
    Removing tim.o(i.HAL_TIM_PWM_MspDeInit), (28 bytes).
    Removing usart.o(.rev16_text), (4 bytes).
    Removing usart.o(.revsh_text), (4 bytes).
    Removing usart.o(.rrx_text), (6 bytes).
    Removing usart.o(i.ChangeTxt), (106 bytes).
    Removing usart.o(i.FlowGetId), (76 bytes).
    Removing usart.o(i.HAL_UART_MspDeInit), (216 bytes).
    Removing usart.o(i.IBPCmdAdd), (80 bytes).
    Removing stm32f2xx_it.o(.rev16_text), (4 bytes).
    Removing stm32f2xx_it.o(.revsh_text), (4 bytes).
    Removing stm32f2xx_it.o(.rrx_text), (6 bytes).
    Removing stm32f2xx_hal_msp.o(.rev16_text), (4 bytes).
    Removing stm32f2xx_hal_msp.o(.revsh_text), (4 bytes).
    Removing stm32f2xx_hal_msp.o(.rrx_text), (6 bytes).
    Removing stm32f2xx_hal_adc.o(.rev16_text), (4 bytes).
    Removing stm32f2xx_hal_adc.o(.revsh_text), (4 bytes).
    Removing stm32f2xx_hal_adc.o(.rrx_text), (6 bytes).
    Removing stm32f2xx_hal_adc.o(i.ADC_DMAConvCplt), (110 bytes).
    Removing stm32f2xx_hal_adc.o(i.ADC_DMAError), (22 bytes).
    Removing stm32f2xx_hal_adc.o(i.ADC_DMAHalfConvCplt), (10 bytes).
    Removing stm32f2xx_hal_adc.o(i.HAL_ADC_AnalogWDGConfig), (112 bytes).
    Removing stm32f2xx_hal_adc.o(i.HAL_ADC_ConvCpltCallback), (2 bytes).
    Removing stm32f2xx_hal_adc.o(i.HAL_ADC_ConvHalfCpltCallback), (2 bytes).
    Removing stm32f2xx_hal_adc.o(i.HAL_ADC_DeInit), (60 bytes).
    Removing stm32f2xx_hal_adc.o(i.HAL_ADC_ErrorCallback), (2 bytes).
    Removing stm32f2xx_hal_adc.o(i.HAL_ADC_GetError), (4 bytes).
    Removing stm32f2xx_hal_adc.o(i.HAL_ADC_GetState), (4 bytes).
    Removing stm32f2xx_hal_adc.o(i.HAL_ADC_IRQHandler), (302 bytes).
    Removing stm32f2xx_hal_adc.o(i.HAL_ADC_LevelOutOfWindowCallback), (2 bytes).
    Removing stm32f2xx_hal_adc.o(i.HAL_ADC_MspDeInit), (2 bytes).
    Removing stm32f2xx_hal_adc.o(i.HAL_ADC_MspInit), (2 bytes).
    Removing stm32f2xx_hal_adc.o(i.HAL_ADC_PollForConversion), (162 bytes).
    Removing stm32f2xx_hal_adc.o(i.HAL_ADC_PollForEvent), (108 bytes).
    Removing stm32f2xx_hal_adc.o(i.HAL_ADC_Start_DMA), (272 bytes).
    Removing stm32f2xx_hal_adc.o(i.HAL_ADC_Start_IT), (216 bytes).
    Removing stm32f2xx_hal_adc.o(i.HAL_ADC_Stop_DMA), (98 bytes).
    Removing stm32f2xx_hal_adc.o(i.HAL_ADC_Stop_IT), (72 bytes).
    Removing stm32f2xx_hal_adc_ex.o(.rev16_text), (4 bytes).
    Removing stm32f2xx_hal_adc_ex.o(.revsh_text), (4 bytes).
    Removing stm32f2xx_hal_adc_ex.o(.rrx_text), (6 bytes).
    Removing stm32f2xx_hal_adc_ex.o(i.ADC_MultiModeDMAConvCplt), (90 bytes).
    Removing stm32f2xx_hal_adc_ex.o(i.ADC_MultiModeDMAError), (18 bytes).
    Removing stm32f2xx_hal_adc_ex.o(i.ADC_MultiModeDMAHalfConvCplt), (6 bytes).
    Removing stm32f2xx_hal_adc_ex.o(i.HAL_ADCEx_InjectedConfigChannel), (448 bytes).
    Removing stm32f2xx_hal_adc_ex.o(i.HAL_ADCEx_InjectedConvCpltCallback), (2 bytes).
    Removing stm32f2xx_hal_adc_ex.o(i.HAL_ADCEx_InjectedGetValue), (58 bytes).
    Removing stm32f2xx_hal_adc_ex.o(i.HAL_ADCEx_InjectedPollForConversion), (144 bytes).
    Removing stm32f2xx_hal_adc_ex.o(i.HAL_ADCEx_InjectedStart), (216 bytes).
    Removing stm32f2xx_hal_adc_ex.o(i.HAL_ADCEx_InjectedStart_IT), (224 bytes).
    Removing stm32f2xx_hal_adc_ex.o(i.HAL_ADCEx_InjectedStop), (86 bytes).
    Removing stm32f2xx_hal_adc_ex.o(i.HAL_ADCEx_InjectedStop_IT), (94 bytes).
    Removing stm32f2xx_hal_adc_ex.o(i.HAL_ADCEx_MultiModeConfigChannel), (108 bytes).
    Removing stm32f2xx_hal_adc_ex.o(i.HAL_ADCEx_MultiModeGetValue), (12 bytes).
    Removing stm32f2xx_hal_adc_ex.o(i.HAL_ADCEx_MultiModeStart_DMA), (276 bytes).
    Removing stm32f2xx_hal_adc_ex.o(i.HAL_ADCEx_MultiModeStop_DMA), (100 bytes).
    Removing stm32f2xx_hal.o(.rev16_text), (4 bytes).
    Removing stm32f2xx_hal.o(.revsh_text), (4 bytes).
    Removing stm32f2xx_hal.o(.rrx_text), (6 bytes).
    Removing stm32f2xx_hal.o(i.HAL_DBGMCU_DisableDBGSleepMode), (16 bytes).
    Removing stm32f2xx_hal.o(i.HAL_DBGMCU_DisableDBGStandbyMode), (16 bytes).
    Removing stm32f2xx_hal.o(i.HAL_DBGMCU_DisableDBGStopMode), (16 bytes).
    Removing stm32f2xx_hal.o(i.HAL_DBGMCU_EnableDBGSleepMode), (16 bytes).
    Removing stm32f2xx_hal.o(i.HAL_DBGMCU_EnableDBGStandbyMode), (16 bytes).
    Removing stm32f2xx_hal.o(i.HAL_DBGMCU_EnableDBGStopMode), (16 bytes).
    Removing stm32f2xx_hal.o(i.HAL_DeInit), (52 bytes).
    Removing stm32f2xx_hal.o(i.HAL_DisableCompensationCell), (28 bytes).
    Removing stm32f2xx_hal.o(i.HAL_EnableCompensationCell), (28 bytes).
    Removing stm32f2xx_hal.o(i.HAL_GetDEVID), (16 bytes).
    Removing stm32f2xx_hal.o(i.HAL_GetHalVersion), (8 bytes).
    Removing stm32f2xx_hal.o(i.HAL_GetREVID), (12 bytes).
    Removing stm32f2xx_hal.o(i.HAL_GetTickFreq), (12 bytes).
    Removing stm32f2xx_hal.o(i.HAL_GetTickPrio), (12 bytes).
    Removing stm32f2xx_hal.o(i.HAL_GetUIDw0), (12 bytes).
    Removing stm32f2xx_hal.o(i.HAL_GetUIDw1), (12 bytes).
    Removing stm32f2xx_hal.o(i.HAL_GetUIDw2), (12 bytes).
    Removing stm32f2xx_hal.o(i.HAL_MspDeInit), (2 bytes).
    Removing stm32f2xx_hal.o(i.HAL_MspInit), (2 bytes).
    Removing stm32f2xx_hal.o(i.HAL_ResumeTick), (14 bytes).
    Removing stm32f2xx_hal.o(i.HAL_SetTickFreq), (36 bytes).
    Removing stm32f2xx_hal.o(i.HAL_SuspendTick), (14 bytes).
    Removing stm32f2xx_hal_rcc.o(.rev16_text), (4 bytes).
    Removing stm32f2xx_hal_rcc.o(.revsh_text), (4 bytes).
    Removing stm32f2xx_hal_rcc.o(.rrx_text), (6 bytes).
    Removing stm32f2xx_hal_rcc.o(i.HAL_RCC_CSSCallback), (2 bytes).
    Removing stm32f2xx_hal_rcc.o(i.HAL_RCC_DeInit), (268 bytes).
    Removing stm32f2xx_hal_rcc.o(i.HAL_RCC_DisableCSS), (12 bytes).
    Removing stm32f2xx_hal_rcc.o(i.HAL_RCC_EnableCSS), (12 bytes).
    Removing stm32f2xx_hal_rcc.o(i.HAL_RCC_GetClockConfig), (64 bytes).
    Removing stm32f2xx_hal_rcc.o(i.HAL_RCC_GetHCLKFreq), (12 bytes).
    Removing stm32f2xx_hal_rcc.o(i.HAL_RCC_GetOscConfig), (224 bytes).
    Removing stm32f2xx_hal_rcc.o(i.HAL_RCC_MCOConfig), (140 bytes).
    Removing stm32f2xx_hal_rcc.o(i.HAL_RCC_NMI_IRQHandler), (28 bytes).
    Removing stm32f2xx_hal_rcc_ex.o(.rev16_text), (4 bytes).
    Removing stm32f2xx_hal_rcc_ex.o(.revsh_text), (4 bytes).
    Removing stm32f2xx_hal_rcc_ex.o(.rrx_text), (6 bytes).
    Removing stm32f2xx_hal_rcc_ex.o(i.HAL_RCCEx_DisablePLLI2S), (52 bytes).
    Removing stm32f2xx_hal_rcc_ex.o(i.HAL_RCCEx_EnablePLLI2S), (128 bytes).
    Removing stm32f2xx_hal_rcc_ex.o(i.HAL_RCCEx_GetPeriphCLKConfig), (80 bytes).
    Removing stm32f2xx_hal_cortex.o(.rev16_text), (4 bytes).
    Removing stm32f2xx_hal_cortex.o(.revsh_text), (4 bytes).
    Removing stm32f2xx_hal_cortex.o(.rrx_text), (6 bytes).
    Removing stm32f2xx_hal_cortex.o(i.HAL_MPU_ConfigRegion), (84 bytes).
    Removing stm32f2xx_hal_cortex.o(i.HAL_MPU_Disable), (28 bytes).
    Removing stm32f2xx_hal_cortex.o(i.HAL_MPU_Enable), (36 bytes).
    Removing stm32f2xx_hal_cortex.o(i.HAL_NVIC_ClearPendingIRQ), (26 bytes).
    Removing stm32f2xx_hal_cortex.o(i.HAL_NVIC_DisableIRQ), (34 bytes).
    Removing stm32f2xx_hal_cortex.o(i.HAL_NVIC_GetActive), (36 bytes).
    Removing stm32f2xx_hal_cortex.o(i.HAL_NVIC_GetPendingIRQ), (36 bytes).
    Removing stm32f2xx_hal_cortex.o(i.HAL_NVIC_GetPriority), (82 bytes).
    Removing stm32f2xx_hal_cortex.o(i.HAL_NVIC_GetPriorityGrouping), (16 bytes).
    Removing stm32f2xx_hal_cortex.o(i.HAL_NVIC_SetPendingIRQ), (26 bytes).
    Removing stm32f2xx_hal_cortex.o(i.HAL_NVIC_SystemReset), (36 bytes).
    Removing stm32f2xx_hal_cortex.o(i.HAL_SYSTICK_CLKSourceConfig), (24 bytes).
    Removing stm32f2xx_hal_cortex.o(i.HAL_SYSTICK_Callback), (2 bytes).
    Removing stm32f2xx_hal_cortex.o(i.HAL_SYSTICK_IRQHandler), (8 bytes).
    Removing stm32f2xx_hal_flash.o(.rev16_text), (4 bytes).
    Removing stm32f2xx_hal_flash.o(.revsh_text), (4 bytes).
    Removing stm32f2xx_hal_flash.o(.rrx_text), (6 bytes).
    Removing stm32f2xx_hal_flash.o(i.FLASH_Program_Byte), (32 bytes).
    Removing stm32f2xx_hal_flash.o(i.FLASH_Program_DoubleWord), (44 bytes).
    Removing stm32f2xx_hal_flash.o(i.FLASH_Program_HalfWord), (36 bytes).
    Removing stm32f2xx_hal_flash.o(i.FLASH_Program_Word), (36 bytes).
    Removing stm32f2xx_hal_flash.o(i.FLASH_SetErrorCode), (104 bytes).
    Removing stm32f2xx_hal_flash.o(i.FLASH_WaitForLastOperation), (80 bytes).
    Removing stm32f2xx_hal_flash.o(i.HAL_FLASH_EndOfOperationCallback), (2 bytes).
    Removing stm32f2xx_hal_flash.o(i.HAL_FLASH_GetError), (12 bytes).
    Removing stm32f2xx_hal_flash.o(i.HAL_FLASH_IRQHandler), (204 bytes).
    Removing stm32f2xx_hal_flash.o(i.HAL_FLASH_Lock), (20 bytes).
    Removing stm32f2xx_hal_flash.o(i.HAL_FLASH_OB_Launch), (24 bytes).
    Removing stm32f2xx_hal_flash.o(i.HAL_FLASH_OB_Lock), (20 bytes).
    Removing stm32f2xx_hal_flash.o(i.HAL_FLASH_OB_Unlock), (40 bytes).
    Removing stm32f2xx_hal_flash.o(i.HAL_FLASH_OperationErrorCallback), (2 bytes).
    Removing stm32f2xx_hal_flash.o(i.HAL_FLASH_Program), (124 bytes).
    Removing stm32f2xx_hal_flash.o(i.HAL_FLASH_Program_IT), (108 bytes).
    Removing stm32f2xx_hal_flash.o(i.HAL_FLASH_Unlock), (44 bytes).
    Removing stm32f2xx_hal_flash.o(.bss), (32 bytes).
    Removing stm32f2xx_hal_flash_ex.o(.rev16_text), (4 bytes).
    Removing stm32f2xx_hal_flash_ex.o(.revsh_text), (4 bytes).
    Removing stm32f2xx_hal_flash_ex.o(.rrx_text), (6 bytes).
    Removing stm32f2xx_hal_flash_ex.o(i.FLASH_Erase_Sector), (88 bytes).
    Removing stm32f2xx_hal_flash_ex.o(i.FLASH_FlushCaches), (84 bytes).
    Removing stm32f2xx_hal_flash_ex.o(i.FLASH_MassErase), (40 bytes).
    Removing stm32f2xx_hal_flash_ex.o(i.HAL_FLASHEx_Erase), (152 bytes).
    Removing stm32f2xx_hal_flash_ex.o(i.HAL_FLASHEx_Erase_IT), (104 bytes).
    Removing stm32f2xx_hal_flash_ex.o(i.HAL_FLASHEx_OBGetConfig), (64 bytes).
    Removing stm32f2xx_hal_flash_ex.o(i.HAL_FLASHEx_OBProgram), (204 bytes).
    Removing stm32f2xx_hal_pwr.o(.rev16_text), (4 bytes).
    Removing stm32f2xx_hal_pwr.o(.revsh_text), (4 bytes).
    Removing stm32f2xx_hal_pwr.o(.rrx_text), (6 bytes).
    Removing stm32f2xx_hal_pwr.o(i.HAL_PWR_ConfigPVD), (124 bytes).
    Removing stm32f2xx_hal_pwr.o(i.HAL_PWR_DeInit), (24 bytes).
    Removing stm32f2xx_hal_pwr.o(i.HAL_PWR_DisableBkUpAccess), (28 bytes).
    Removing stm32f2xx_hal_pwr.o(i.HAL_PWR_DisablePVD), (24 bytes).
    Removing stm32f2xx_hal_pwr.o(i.HAL_PWR_DisableSEVOnPend), (16 bytes).
    Removing stm32f2xx_hal_pwr.o(i.HAL_PWR_DisableSleepOnExit), (16 bytes).
    Removing stm32f2xx_hal_pwr.o(i.HAL_PWR_DisableWakeUpPin), (16 bytes).
    Removing stm32f2xx_hal_pwr.o(i.HAL_PWR_EnableBkUpAccess), (24 bytes).
    Removing stm32f2xx_hal_pwr.o(i.HAL_PWR_EnablePVD), (24 bytes).
    Removing stm32f2xx_hal_pwr.o(i.HAL_PWR_EnableSEVOnPend), (16 bytes).
    Removing stm32f2xx_hal_pwr.o(i.HAL_PWR_EnableSleepOnExit), (16 bytes).
    Removing stm32f2xx_hal_pwr.o(i.HAL_PWR_EnableWakeUpPin), (16 bytes).
    Removing stm32f2xx_hal_pwr.o(i.HAL_PWR_EnterSLEEPMode), (32 bytes).
    Removing stm32f2xx_hal_pwr.o(i.HAL_PWR_EnterSTANDBYMode), (32 bytes).
    Removing stm32f2xx_hal_pwr.o(i.HAL_PWR_EnterSTOPMode), (56 bytes).
    Removing stm32f2xx_hal_pwr.o(i.HAL_PWR_PVDCallback), (2 bytes).
    Removing stm32f2xx_hal_pwr.o(i.HAL_PWR_PVD_IRQHandler), (28 bytes).
    Removing stm32f2xx_hal_pwr_ex.o(.rev16_text), (4 bytes).
    Removing stm32f2xx_hal_pwr_ex.o(.revsh_text), (4 bytes).
    Removing stm32f2xx_hal_pwr_ex.o(.rrx_text), (6 bytes).
    Removing stm32f2xx_hal_pwr_ex.o(i.HAL_PWREx_DisableBkUpReg), (76 bytes).
    Removing stm32f2xx_hal_pwr_ex.o(i.HAL_PWREx_DisableFlashPowerDown), (28 bytes).
    Removing stm32f2xx_hal_pwr_ex.o(i.HAL_PWREx_EnableBkUpReg), (76 bytes).
    Removing stm32f2xx_hal_pwr_ex.o(i.HAL_PWREx_EnableFlashPowerDown), (24 bytes).
    Removing stm32f2xx_hal_gpio.o(.rev16_text), (4 bytes).
    Removing stm32f2xx_hal_gpio.o(.revsh_text), (4 bytes).
    Removing stm32f2xx_hal_gpio.o(.rrx_text), (6 bytes).
    Removing stm32f2xx_hal_gpio.o(i.HAL_GPIO_DeInit), (388 bytes).
    Removing stm32f2xx_hal_gpio.o(i.HAL_GPIO_EXTI_Callback), (2 bytes).
    Removing stm32f2xx_hal_gpio.o(i.HAL_GPIO_EXTI_IRQHandler), (24 bytes).
    Removing stm32f2xx_hal_gpio.o(i.HAL_GPIO_LockPin), (34 bytes).
    Removing stm32f2xx_hal_dma.o(.rev16_text), (4 bytes).
    Removing stm32f2xx_hal_dma.o(.revsh_text), (4 bytes).
    Removing stm32f2xx_hal_dma.o(.rrx_text), (6 bytes).
    Removing stm32f2xx_hal_dma.o(i.HAL_DMA_DeInit), (98 bytes).
    Removing stm32f2xx_hal_dma.o(i.HAL_DMA_GetError), (4 bytes).
    Removing stm32f2xx_hal_dma.o(i.HAL_DMA_GetState), (6 bytes).
    Removing stm32f2xx_hal_dma.o(i.HAL_DMA_PollForTransfer), (288 bytes).
    Removing stm32f2xx_hal_dma.o(i.HAL_DMA_RegisterCallback), (82 bytes).
    Removing stm32f2xx_hal_dma.o(i.HAL_DMA_Start), (70 bytes).
    Removing stm32f2xx_hal_dma.o(i.HAL_DMA_UnRegisterCallback), (96 bytes).
    Removing stm32f2xx_hal_dma_ex.o(.rev16_text), (4 bytes).
    Removing stm32f2xx_hal_dma_ex.o(.revsh_text), (4 bytes).
    Removing stm32f2xx_hal_dma_ex.o(.rrx_text), (6 bytes).
    Removing stm32f2xx_hal_dma_ex.o(i.DMA_MultiBufferSetConfig), (30 bytes).
    Removing stm32f2xx_hal_dma_ex.o(i.HAL_DMAEx_ChangeMemory), (14 bytes).
    Removing stm32f2xx_hal_dma_ex.o(i.HAL_DMAEx_MultiBufferStart), (100 bytes).
    Removing stm32f2xx_hal_dma_ex.o(i.HAL_DMAEx_MultiBufferStart_IT), (2432 bytes).
    Removing stm32f2xx_hal_exti.o(.rev16_text), (4 bytes).
    Removing stm32f2xx_hal_exti.o(.revsh_text), (4 bytes).
    Removing stm32f2xx_hal_exti.o(.rrx_text), (6 bytes).
    Removing stm32f2xx_hal_exti.o(i.HAL_EXTI_ClearConfigLine), (108 bytes).
    Removing stm32f2xx_hal_exti.o(i.HAL_EXTI_ClearPending), (20 bytes).
    Removing stm32f2xx_hal_exti.o(i.HAL_EXTI_GenerateSWI), (20 bytes).
    Removing stm32f2xx_hal_exti.o(i.HAL_EXTI_GetConfigLine), (144 bytes).
    Removing stm32f2xx_hal_exti.o(i.HAL_EXTI_GetHandle), (12 bytes).
    Removing stm32f2xx_hal_exti.o(i.HAL_EXTI_GetPending), (24 bytes).
    Removing stm32f2xx_hal_exti.o(i.HAL_EXTI_IRQHandler), (36 bytes).
    Removing stm32f2xx_hal_exti.o(i.HAL_EXTI_RegisterCallback), (14 bytes).
    Removing stm32f2xx_hal_exti.o(i.HAL_EXTI_SetConfigLine), (168 bytes).
    Removing stm32f2xx_hal_iwdg.o(.rev16_text), (4 bytes).
    Removing stm32f2xx_hal_iwdg.o(.revsh_text), (4 bytes).
    Removing stm32f2xx_hal_iwdg.o(.rrx_text), (6 bytes).
    Removing stm32f2xx_hal_iwdg.o(i.HAL_IWDG_Init), (90 bytes).
    Removing stm32f2xx_hal_iwdg.o(i.HAL_IWDG_Refresh), (12 bytes).
    Removing stm32f2xx_hal_rtc.o(.rev16_text), (4 bytes).
    Removing stm32f2xx_hal_rtc.o(.revsh_text), (4 bytes).
    Removing stm32f2xx_hal_rtc.o(.rrx_text), (6 bytes).
    Removing stm32f2xx_hal_rtc.o(i.HAL_RTC_AlarmAEventCallback), (2 bytes).
    Removing stm32f2xx_hal_rtc.o(i.HAL_RTC_AlarmIRQHandler), (88 bytes).
    Removing stm32f2xx_hal_rtc.o(i.HAL_RTC_DST_Add1Hour), (30 bytes).
    Removing stm32f2xx_hal_rtc.o(i.HAL_RTC_DST_ClearStoreOperation), (30 bytes).
    Removing stm32f2xx_hal_rtc.o(i.HAL_RTC_DST_ReadStoreOperation), (10 bytes).
    Removing stm32f2xx_hal_rtc.o(i.HAL_RTC_DST_SetStoreOperation), (30 bytes).
    Removing stm32f2xx_hal_rtc.o(i.HAL_RTC_DST_Sub1Hour), (30 bytes).
    Removing stm32f2xx_hal_rtc.o(i.HAL_RTC_DeInit), (116 bytes).
    Removing stm32f2xx_hal_rtc.o(i.HAL_RTC_DeactivateAlarm), (178 bytes).
    Removing stm32f2xx_hal_rtc.o(i.HAL_RTC_GetAlarm), (108 bytes).
    Removing stm32f2xx_hal_rtc.o(i.HAL_RTC_GetState), (4 bytes).
    Removing stm32f2xx_hal_rtc.o(i.HAL_RTC_MspDeInit), (2 bytes).
    Removing stm32f2xx_hal_rtc.o(i.HAL_RTC_MspInit), (2 bytes).
    Removing stm32f2xx_hal_rtc.o(i.HAL_RTC_PollForAlarmAEvent), (66 bytes).
    Removing stm32f2xx_hal_rtc.o(i.HAL_RTC_SetAlarm), (346 bytes).
    Removing stm32f2xx_hal_rtc.o(i.HAL_RTC_SetAlarm_IT), (380 bytes).
    Removing stm32f2xx_hal_rtc_ex.o(.rev16_text), (4 bytes).
    Removing stm32f2xx_hal_rtc_ex.o(.revsh_text), (4 bytes).
    Removing stm32f2xx_hal_rtc_ex.o(.rrx_text), (6 bytes).
    Removing stm32f2xx_hal_rtc_ex.o(i.HAL_RTCEx_AlarmBEventCallback), (2 bytes).
    Removing stm32f2xx_hal_rtc_ex.o(i.HAL_RTCEx_BKUPRead), (10 bytes).
    Removing stm32f2xx_hal_rtc_ex.o(i.HAL_RTCEx_BKUPWrite), (10 bytes).
    Removing stm32f2xx_hal_rtc_ex.o(i.HAL_RTCEx_DeactivateCalibrationOutPut), (56 bytes).
    Removing stm32f2xx_hal_rtc_ex.o(i.HAL_RTCEx_DeactivateCoarseCalib), (76 bytes).
    Removing stm32f2xx_hal_rtc_ex.o(i.HAL_RTCEx_DeactivateRefClock), (76 bytes).
    Removing stm32f2xx_hal_rtc_ex.o(i.HAL_RTCEx_DeactivateTamper), (38 bytes).
    Removing stm32f2xx_hal_rtc_ex.o(i.HAL_RTCEx_DeactivateTimeStamp), (70 bytes).
    Removing stm32f2xx_hal_rtc_ex.o(i.HAL_RTCEx_DeactivateWakeUpTimer), (122 bytes).
    Removing stm32f2xx_hal_rtc_ex.o(i.HAL_RTCEx_GetTimeStamp), (140 bytes).
    Removing stm32f2xx_hal_rtc_ex.o(i.HAL_RTCEx_GetWakeUpTimer), (8 bytes).
    Removing stm32f2xx_hal_rtc_ex.o(i.HAL_RTCEx_PollForAlarmBEvent), (66 bytes).
    Removing stm32f2xx_hal_rtc_ex.o(i.HAL_RTCEx_PollForTamper1Event), (66 bytes).
    Removing stm32f2xx_hal_rtc_ex.o(i.HAL_RTCEx_PollForTimeStampEvent), (82 bytes).
    Removing stm32f2xx_hal_rtc_ex.o(i.HAL_RTCEx_PollForWakeUpTimerEvent), (66 bytes).
    Removing stm32f2xx_hal_rtc_ex.o(i.HAL_RTCEx_SetCalibrationOutPut), (56 bytes).
    Removing stm32f2xx_hal_rtc_ex.o(i.HAL_RTCEx_SetCoarseCalib), (90 bytes).
    Removing stm32f2xx_hal_rtc_ex.o(i.HAL_RTCEx_SetRefClock), (76 bytes).
    Removing stm32f2xx_hal_rtc_ex.o(i.HAL_RTCEx_SetTamper), (70 bytes).
    Removing stm32f2xx_hal_rtc_ex.o(i.HAL_RTCEx_SetTamper_IT), (96 bytes).
    Removing stm32f2xx_hal_rtc_ex.o(i.HAL_RTCEx_SetTimeStamp), (118 bytes).
    Removing stm32f2xx_hal_rtc_ex.o(i.HAL_RTCEx_SetTimeStamp_IT), (156 bytes).
    Removing stm32f2xx_hal_rtc_ex.o(i.HAL_RTCEx_SetWakeUpTimer), (210 bytes).
    Removing stm32f2xx_hal_rtc_ex.o(i.HAL_RTCEx_SetWakeUpTimer_IT), (260 bytes).
    Removing stm32f2xx_hal_rtc_ex.o(i.HAL_RTCEx_Tamper1EventCallback), (2 bytes).
    Removing stm32f2xx_hal_rtc_ex.o(i.HAL_RTCEx_TamperTimeStampIRQHandler), (88 bytes).
    Removing stm32f2xx_hal_rtc_ex.o(i.HAL_RTCEx_TimeStampEventCallback), (2 bytes).
    Removing stm32f2xx_hal_rtc_ex.o(i.HAL_RTCEx_WakeUpTimerEventCallback), (2 bytes).
    Removing stm32f2xx_hal_rtc_ex.o(i.HAL_RTCEx_WakeUpTimerIRQHandler), (48 bytes).
    Removing stm32f2xx_hal_spi.o(.rev16_text), (4 bytes).
    Removing stm32f2xx_hal_spi.o(.revsh_text), (4 bytes).
    Removing stm32f2xx_hal_spi.o(.rrx_text), (6 bytes).
    Removing stm32f2xx_hal_spi.o(i.HAL_SPI_Abort), (292 bytes).
    Removing stm32f2xx_hal_spi.o(i.HAL_SPI_AbortCpltCallback), (2 bytes).
    Removing stm32f2xx_hal_spi.o(i.HAL_SPI_Abort_IT), (292 bytes).
    Removing stm32f2xx_hal_spi.o(i.HAL_SPI_DMAPause), (38 bytes).
    Removing stm32f2xx_hal_spi.o(i.HAL_SPI_DMAResume), (38 bytes).
    Removing stm32f2xx_hal_spi.o(i.HAL_SPI_DMAStop), (66 bytes).
    Removing stm32f2xx_hal_spi.o(i.HAL_SPI_DeInit), (46 bytes).
    Removing stm32f2xx_hal_spi.o(i.HAL_SPI_ErrorCallback), (2 bytes).
    Removing stm32f2xx_hal_spi.o(i.HAL_SPI_GetError), (4 bytes).
    Removing stm32f2xx_hal_spi.o(i.HAL_SPI_GetState), (6 bytes).
    Removing stm32f2xx_hal_spi.o(i.HAL_SPI_IRQHandler), (252 bytes).
    Removing stm32f2xx_hal_spi.o(i.HAL_SPI_MspDeInit), (2 bytes).
    Removing stm32f2xx_hal_spi.o(i.HAL_SPI_MspInit), (2 bytes).
    Removing stm32f2xx_hal_spi.o(i.HAL_SPI_Receive), (342 bytes).
    Removing stm32f2xx_hal_spi.o(i.HAL_SPI_Receive_DMA), (236 bytes).
    Removing stm32f2xx_hal_spi.o(i.HAL_SPI_Receive_IT), (176 bytes).
    Removing stm32f2xx_hal_spi.o(i.HAL_SPI_RxCpltCallback), (2 bytes).
    Removing stm32f2xx_hal_spi.o(i.HAL_SPI_RxHalfCpltCallback), (2 bytes).
    Removing stm32f2xx_hal_spi.o(i.HAL_SPI_Transmit), (366 bytes).
    Removing stm32f2xx_hal_spi.o(i.HAL_SPI_TransmitReceive_DMA), (276 bytes).
    Removing stm32f2xx_hal_spi.o(i.HAL_SPI_TransmitReceive_IT), (164 bytes).
    Removing stm32f2xx_hal_spi.o(i.HAL_SPI_Transmit_DMA), (204 bytes).
    Removing stm32f2xx_hal_spi.o(i.HAL_SPI_Transmit_IT), (148 bytes).
    Removing stm32f2xx_hal_spi.o(i.HAL_SPI_TxCpltCallback), (2 bytes).
    Removing stm32f2xx_hal_spi.o(i.HAL_SPI_TxHalfCpltCallback), (2 bytes).
    Removing stm32f2xx_hal_spi.o(i.HAL_SPI_TxRxCpltCallback), (2 bytes).
    Removing stm32f2xx_hal_spi.o(i.HAL_SPI_TxRxHalfCpltCallback), (2 bytes).
    Removing stm32f2xx_hal_spi.o(i.SPI_2linesRxISR_16BIT), (48 bytes).
    Removing stm32f2xx_hal_spi.o(i.SPI_2linesRxISR_8BIT), (48 bytes).
    Removing stm32f2xx_hal_spi.o(i.SPI_2linesTxISR_16BIT), (48 bytes).
    Removing stm32f2xx_hal_spi.o(i.SPI_2linesTxISR_8BIT), (48 bytes).
    Removing stm32f2xx_hal_spi.o(i.SPI_AbortRx_ISR), (88 bytes).
    Removing stm32f2xx_hal_spi.o(i.SPI_AbortTx_ISR), (28 bytes).
    Removing stm32f2xx_hal_spi.o(i.SPI_CloseRxTx_ISR), (144 bytes).
    Removing stm32f2xx_hal_spi.o(i.SPI_CloseRx_ISR), (76 bytes).
    Removing stm32f2xx_hal_spi.o(i.SPI_CloseTx_ISR), (124 bytes).
    Removing stm32f2xx_hal_spi.o(i.SPI_DMAAbortOnError), (16 bytes).
    Removing stm32f2xx_hal_spi.o(i.SPI_DMAError), (34 bytes).
    Removing stm32f2xx_hal_spi.o(i.SPI_DMAHalfReceiveCplt), (10 bytes).
    Removing stm32f2xx_hal_spi.o(i.SPI_DMAHalfTransmitCplt), (10 bytes).
    Removing stm32f2xx_hal_spi.o(i.SPI_DMAHalfTransmitReceiveCplt), (10 bytes).
    Removing stm32f2xx_hal_spi.o(i.SPI_DMAReceiveCplt), (106 bytes).
    Removing stm32f2xx_hal_spi.o(i.SPI_DMARxAbortCallback), (102 bytes).
    Removing stm32f2xx_hal_spi.o(i.SPI_DMATransmitCplt), (100 bytes).
    Removing stm32f2xx_hal_spi.o(i.SPI_DMATransmitReceiveCplt), (90 bytes).
    Removing stm32f2xx_hal_spi.o(i.SPI_DMATxAbortCallback), (116 bytes).
    Removing stm32f2xx_hal_spi.o(i.SPI_EndRxTransaction), (66 bytes).
    Removing stm32f2xx_hal_spi.o(i.SPI_RxISR_16BIT), (32 bytes).
    Removing stm32f2xx_hal_spi.o(i.SPI_RxISR_8BIT), (32 bytes).
    Removing stm32f2xx_hal_spi.o(i.SPI_TxISR_16BIT), (32 bytes).
    Removing stm32f2xx_hal_spi.o(i.SPI_TxISR_8BIT), (32 bytes).
    Removing stm32f2xx_hal_tim.o(.rev16_text), (4 bytes).
    Removing stm32f2xx_hal_tim.o(.revsh_text), (4 bytes).
    Removing stm32f2xx_hal_tim.o(.rrx_text), (6 bytes).
    Removing stm32f2xx_hal_tim.o(i.HAL_TIM_Base_DeInit), (92 bytes).
    Removing stm32f2xx_hal_tim.o(i.HAL_TIM_Base_GetState), (6 bytes).
    Removing stm32f2xx_hal_tim.o(i.HAL_TIM_Base_MspDeInit), (2 bytes).
    Removing stm32f2xx_hal_tim.o(i.HAL_TIM_Base_MspInit), (2 bytes).
    Removing stm32f2xx_hal_tim.o(i.HAL_TIM_Base_Start_DMA), (192 bytes).
    Removing stm32f2xx_hal_tim.o(i.HAL_TIM_Base_Stop_DMA), (58 bytes).
    Removing stm32f2xx_hal_tim.o(i.HAL_TIM_Base_Stop_IT), (48 bytes).
    Removing stm32f2xx_hal_tim.o(i.HAL_TIM_ConfigClockSource), (220 bytes).
    Removing stm32f2xx_hal_tim.o(i.HAL_TIM_ConfigOCrefClear), (216 bytes).
    Removing stm32f2xx_hal_tim.o(i.HAL_TIM_ConfigTI1Input), (16 bytes).
    Removing stm32f2xx_hal_tim.o(i.HAL_TIM_DMABurstState), (6 bytes).
    Removing stm32f2xx_hal_tim.o(i.HAL_TIM_DMABurst_MultiReadStart), (332 bytes).
    Removing stm32f2xx_hal_tim.o(i.HAL_TIM_DMABurst_MultiWriteStart), (332 bytes).
    Removing stm32f2xx_hal_tim.o(i.HAL_TIM_DMABurst_ReadStart), (18 bytes).
    Removing stm32f2xx_hal_tim.o(i.HAL_TIM_DMABurst_ReadStop), (106 bytes).
    Removing stm32f2xx_hal_tim.o(i.HAL_TIM_DMABurst_WriteStart), (18 bytes).
    Removing stm32f2xx_hal_tim.o(i.HAL_TIM_DMABurst_WriteStop), (106 bytes).
    Removing stm32f2xx_hal_tim.o(i.HAL_TIM_Encoder_DeInit), (76 bytes).
    Removing stm32f2xx_hal_tim.o(i.HAL_TIM_Encoder_GetState), (6 bytes).
    Removing stm32f2xx_hal_tim.o(i.HAL_TIM_Encoder_Init), (164 bytes).
    Removing stm32f2xx_hal_tim.o(i.HAL_TIM_Encoder_MspDeInit), (2 bytes).
    Removing stm32f2xx_hal_tim.o(i.HAL_TIM_Encoder_MspInit), (2 bytes).
    Removing stm32f2xx_hal_tim.o(i.HAL_TIM_Encoder_Start), (142 bytes).
    Removing stm32f2xx_hal_tim.o(i.HAL_TIM_Encoder_Start_DMA), (428 bytes).
    Removing stm32f2xx_hal_tim.o(i.HAL_TIM_Encoder_Start_IT), (182 bytes).
    Removing stm32f2xx_hal_tim.o(i.HAL_TIM_Encoder_Stop), (102 bytes).
    Removing stm32f2xx_hal_tim.o(i.HAL_TIM_Encoder_Stop_DMA), (172 bytes).
    Removing stm32f2xx_hal_tim.o(i.HAL_TIM_Encoder_Stop_IT), (144 bytes).
    Removing stm32f2xx_hal_tim.o(i.HAL_TIM_ErrorCallback), (2 bytes).
    Removing stm32f2xx_hal_tim.o(i.HAL_TIM_GenerateEvent), (38 bytes).
    Removing stm32f2xx_hal_tim.o(i.HAL_TIM_GetActiveChannel), (4 bytes).
    Removing stm32f2xx_hal_tim.o(i.HAL_TIM_GetChannelState), (34 bytes).
    Removing stm32f2xx_hal_tim.o(i.HAL_TIM_IC_CaptureHalfCpltCallback), (2 bytes).
    Removing stm32f2xx_hal_tim.o(i.HAL_TIM_IC_ConfigChannel), (292 bytes).
    Removing stm32f2xx_hal_tim.o(i.HAL_TIM_IC_DeInit), (92 bytes).
    Removing stm32f2xx_hal_tim.o(i.HAL_TIM_IC_GetState), (6 bytes).
    Removing stm32f2xx_hal_tim.o(i.HAL_TIM_IC_Init), (90 bytes).
    Removing stm32f2xx_hal_tim.o(i.HAL_TIM_IC_MspDeInit), (2 bytes).
    Removing stm32f2xx_hal_tim.o(i.HAL_TIM_IC_MspInit), (2 bytes).
    Removing stm32f2xx_hal_tim.o(i.HAL_TIM_IC_Start), (228 bytes).
    Removing stm32f2xx_hal_tim.o(i.HAL_TIM_IC_Start_DMA), (460 bytes).
    Removing stm32f2xx_hal_tim.o(i.HAL_TIM_IC_Start_IT), (268 bytes).
    Removing stm32f2xx_hal_tim.o(i.HAL_TIM_IC_Stop), (82 bytes).
    Removing stm32f2xx_hal_tim.o(i.HAL_TIM_IC_Stop_DMA), (160 bytes).
    Removing stm32f2xx_hal_tim.o(i.HAL_TIM_IC_Stop_IT), (146 bytes).
    Removing stm32f2xx_hal_tim.o(i.HAL_TIM_OC_ConfigChannel), (82 bytes).
    Removing stm32f2xx_hal_tim.o(i.HAL_TIM_OC_DeInit), (92 bytes).
    Removing stm32f2xx_hal_tim.o(i.HAL_TIM_OC_GetState), (6 bytes).
    Removing stm32f2xx_hal_tim.o(i.HAL_TIM_OC_Init), (90 bytes).
    Removing stm32f2xx_hal_tim.o(i.HAL_TIM_OC_MspDeInit), (2 bytes).
    Removing stm32f2xx_hal_tim.o(i.HAL_TIM_OC_MspInit), (2 bytes).
    Removing stm32f2xx_hal_tim.o(i.HAL_TIM_OC_Start), (200 bytes).
    Removing stm32f2xx_hal_tim.o(i.HAL_TIM_OC_Start_DMA), (448 bytes).
    Removing stm32f2xx_hal_tim.o(i.HAL_TIM_OC_Start_IT), (244 bytes).
    Removing stm32f2xx_hal_tim.o(i.HAL_TIM_OC_Stop), (124 bytes).
    Removing stm32f2xx_hal_tim.o(i.HAL_TIM_OC_Stop_DMA), (204 bytes).
    Removing stm32f2xx_hal_tim.o(i.HAL_TIM_OC_Stop_IT), (188 bytes).
    Removing stm32f2xx_hal_tim.o(i.HAL_TIM_OnePulse_ConfigChannel), (230 bytes).
    Removing stm32f2xx_hal_tim.o(i.HAL_TIM_OnePulse_DeInit), (76 bytes).
    Removing stm32f2xx_hal_tim.o(i.HAL_TIM_OnePulse_GetState), (6 bytes).
    Removing stm32f2xx_hal_tim.o(i.HAL_TIM_OnePulse_Init), (86 bytes).
    Removing stm32f2xx_hal_tim.o(i.HAL_TIM_OnePulse_MspDeInit), (2 bytes).
    Removing stm32f2xx_hal_tim.o(i.HAL_TIM_OnePulse_MspInit), (2 bytes).
    Removing stm32f2xx_hal_tim.o(i.HAL_TIM_OnePulse_Start), (112 bytes).
    Removing stm32f2xx_hal_tim.o(i.HAL_TIM_OnePulse_Start_IT), (132 bytes).
    Removing stm32f2xx_hal_tim.o(i.HAL_TIM_OnePulse_Stop), (112 bytes).
    Removing stm32f2xx_hal_tim.o(i.HAL_TIM_OnePulse_Stop_IT), (132 bytes).
    Removing stm32f2xx_hal_tim.o(i.HAL_TIM_PWM_DeInit), (92 bytes).
    Removing stm32f2xx_hal_tim.o(i.HAL_TIM_PWM_GetState), (6 bytes).
    Removing stm32f2xx_hal_tim.o(i.HAL_TIM_PWM_MspDeInit), (2 bytes).
    Removing stm32f2xx_hal_tim.o(i.HAL_TIM_PWM_MspInit), (2 bytes).
    Removing stm32f2xx_hal_tim.o(i.HAL_TIM_PWM_PulseFinishedHalfCpltCallback), (2 bytes).
    Removing stm32f2xx_hal_tim.o(i.HAL_TIM_PWM_Start_DMA), (448 bytes).
    Removing stm32f2xx_hal_tim.o(i.HAL_TIM_PWM_Start_IT), (244 bytes).
    Removing stm32f2xx_hal_tim.o(i.HAL_TIM_PWM_Stop_DMA), (204 bytes).
    Removing stm32f2xx_hal_tim.o(i.HAL_TIM_PWM_Stop_IT), (188 bytes).
    Removing stm32f2xx_hal_tim.o(i.HAL_TIM_PeriodElapsedCallback), (2 bytes).
    Removing stm32f2xx_hal_tim.o(i.HAL_TIM_PeriodElapsedHalfCpltCallback), (2 bytes).
    Removing stm32f2xx_hal_tim.o(i.HAL_TIM_ReadCapturedValue), (42 bytes).
    Removing stm32f2xx_hal_tim.o(i.HAL_TIM_SlaveConfigSynchro), (86 bytes).
    Removing stm32f2xx_hal_tim.o(i.HAL_TIM_SlaveConfigSynchro_IT), (86 bytes).
    Removing stm32f2xx_hal_tim.o(i.HAL_TIM_TriggerHalfCpltCallback), (2 bytes).
    Removing stm32f2xx_hal_tim.o(i.TIM_DMACaptureCplt), (110 bytes).
    Removing stm32f2xx_hal_tim.o(i.TIM_DMACaptureHalfCplt), (56 bytes).
    Removing stm32f2xx_hal_tim.o(i.TIM_DMADelayPulseCplt), (94 bytes).
    Removing stm32f2xx_hal_tim.o(i.TIM_DMADelayPulseHalfCplt), (56 bytes).
    Removing stm32f2xx_hal_tim.o(i.TIM_DMAError), (84 bytes).
    Removing stm32f2xx_hal_tim.o(i.TIM_DMAPeriodElapsedCplt), (22 bytes).
    Removing stm32f2xx_hal_tim.o(i.TIM_DMAPeriodElapsedHalfCplt), (10 bytes).
    Removing stm32f2xx_hal_tim.o(i.TIM_DMATriggerCplt), (22 bytes).
    Removing stm32f2xx_hal_tim.o(i.TIM_DMATriggerHalfCplt), (10 bytes).
    Removing stm32f2xx_hal_tim.o(i.TIM_ETR_SetConfig), (20 bytes).
    Removing stm32f2xx_hal_tim.o(i.TIM_ITRx_SetConfig), (16 bytes).
    Removing stm32f2xx_hal_tim.o(i.TIM_SlaveTimer_SetConfig), (140 bytes).
    Removing stm32f2xx_hal_tim.o(i.TIM_TI1_ConfigInputStage), (34 bytes).
    Removing stm32f2xx_hal_tim.o(i.TIM_TI1_SetConfig), (128 bytes).
    Removing stm32f2xx_hal_tim.o(i.TIM_TI2_ConfigInputStage), (36 bytes).
    Removing stm32f2xx_hal_tim.o(i.TIM_TI2_SetConfig), (54 bytes).
    Removing stm32f2xx_hal_tim_ex.o(.rev16_text), (4 bytes).
    Removing stm32f2xx_hal_tim_ex.o(.revsh_text), (4 bytes).
    Removing stm32f2xx_hal_tim_ex.o(.rrx_text), (6 bytes).
    Removing stm32f2xx_hal_tim_ex.o(i.HAL_TIMEx_CommutHalfCpltCallback), (2 bytes).
    Removing stm32f2xx_hal_tim_ex.o(i.HAL_TIMEx_ConfigBreakDeadTime), (84 bytes).
    Removing stm32f2xx_hal_tim_ex.o(i.HAL_TIMEx_ConfigCommutEvent), (112 bytes).
    Removing stm32f2xx_hal_tim_ex.o(i.HAL_TIMEx_ConfigCommutEvent_DMA), (144 bytes).
    Removing stm32f2xx_hal_tim_ex.o(i.HAL_TIMEx_ConfigCommutEvent_IT), (112 bytes).
    Removing stm32f2xx_hal_tim_ex.o(i.HAL_TIMEx_GetChannelNState), (34 bytes).
    Removing stm32f2xx_hal_tim_ex.o(i.HAL_TIMEx_HallSensor_DeInit), (76 bytes).
    Removing stm32f2xx_hal_tim_ex.o(i.HAL_TIMEx_HallSensor_GetState), (6 bytes).
    Removing stm32f2xx_hal_tim_ex.o(i.HAL_TIMEx_HallSensor_Init), (208 bytes).
    Removing stm32f2xx_hal_tim_ex.o(i.HAL_TIMEx_HallSensor_MspDeInit), (2 bytes).
    Removing stm32f2xx_hal_tim_ex.o(i.HAL_TIMEx_HallSensor_MspInit), (2 bytes).
    Removing stm32f2xx_hal_tim_ex.o(i.HAL_TIMEx_HallSensor_Start), (168 bytes).
    Removing stm32f2xx_hal_tim_ex.o(i.HAL_TIMEx_HallSensor_Start_DMA), (224 bytes).
    Removing stm32f2xx_hal_tim_ex.o(i.HAL_TIMEx_HallSensor_Start_IT), (180 bytes).
    Removing stm32f2xx_hal_tim_ex.o(i.HAL_TIMEx_HallSensor_Stop), (58 bytes).
    Removing stm32f2xx_hal_tim_ex.o(i.HAL_TIMEx_HallSensor_Stop_DMA), (70 bytes).
    Removing stm32f2xx_hal_tim_ex.o(i.HAL_TIMEx_HallSensor_Stop_IT), (68 bytes).
    Removing stm32f2xx_hal_tim_ex.o(i.HAL_TIMEx_OCN_Start), (192 bytes).
    Removing stm32f2xx_hal_tim_ex.o(i.HAL_TIMEx_OCN_Start_DMA), (392 bytes).
    Removing stm32f2xx_hal_tim_ex.o(i.HAL_TIMEx_OCN_Start_IT), (232 bytes).
    Removing stm32f2xx_hal_tim_ex.o(i.HAL_TIMEx_OCN_Stop), (104 bytes).
    Removing stm32f2xx_hal_tim_ex.o(i.HAL_TIMEx_OCN_Stop_DMA), (168 bytes).
    Removing stm32f2xx_hal_tim_ex.o(i.HAL_TIMEx_OCN_Stop_IT), (170 bytes).
    Removing stm32f2xx_hal_tim_ex.o(i.HAL_TIMEx_OnePulseN_Start), (100 bytes).
    Removing stm32f2xx_hal_tim_ex.o(i.HAL_TIMEx_OnePulseN_Start_IT), (120 bytes).
    Removing stm32f2xx_hal_tim_ex.o(i.HAL_TIMEx_OnePulseN_Stop), (98 bytes).
    Removing stm32f2xx_hal_tim_ex.o(i.HAL_TIMEx_OnePulseN_Stop_IT), (120 bytes).
    Removing stm32f2xx_hal_tim_ex.o(i.HAL_TIMEx_PWMN_Start), (192 bytes).
    Removing stm32f2xx_hal_tim_ex.o(i.HAL_TIMEx_PWMN_Start_DMA), (392 bytes).
    Removing stm32f2xx_hal_tim_ex.o(i.HAL_TIMEx_PWMN_Start_IT), (232 bytes).
    Removing stm32f2xx_hal_tim_ex.o(i.HAL_TIMEx_PWMN_Stop), (104 bytes).
    Removing stm32f2xx_hal_tim_ex.o(i.HAL_TIMEx_PWMN_Stop_DMA), (168 bytes).
    Removing stm32f2xx_hal_tim_ex.o(i.HAL_TIMEx_PWMN_Stop_IT), (170 bytes).
    Removing stm32f2xx_hal_tim_ex.o(i.HAL_TIMEx_RemapConfig), (28 bytes).
    Removing stm32f2xx_hal_tim_ex.o(i.TIMEx_DMACommutationCplt), (16 bytes).
    Removing stm32f2xx_hal_tim_ex.o(i.TIMEx_DMACommutationHalfCplt), (16 bytes).
    Removing stm32f2xx_hal_tim_ex.o(i.TIM_CCxNChannelCmd), (26 bytes).
    Removing stm32f2xx_hal_tim_ex.o(i.TIM_DMADelayPulseNCplt), (94 bytes).
    Removing stm32f2xx_hal_tim_ex.o(i.TIM_DMAErrorCCxN), (62 bytes).
    Removing stm32f2xx_hal_uart.o(.rev16_text), (4 bytes).
    Removing stm32f2xx_hal_uart.o(.revsh_text), (4 bytes).
    Removing stm32f2xx_hal_uart.o(.rrx_text), (6 bytes).
    Removing stm32f2xx_hal_uart.o(i.HAL_HalfDuplex_EnableReceiver), (50 bytes).
    Removing stm32f2xx_hal_uart.o(i.HAL_HalfDuplex_EnableTransmitter), (50 bytes).
    Removing stm32f2xx_hal_uart.o(i.HAL_HalfDuplex_Init), (110 bytes).
    Removing stm32f2xx_hal_uart.o(i.HAL_LIN_Init), (130 bytes).
    Removing stm32f2xx_hal_uart.o(i.HAL_LIN_SendBreak), (60 bytes).
    Removing stm32f2xx_hal_uart.o(i.HAL_MultiProcessor_EnterMuteMode), (62 bytes).
    Removing stm32f2xx_hal_uart.o(i.HAL_MultiProcessor_ExitMuteMode), (62 bytes).
    Removing stm32f2xx_hal_uart.o(i.HAL_MultiProcessor_Init), (144 bytes).
    Removing stm32f2xx_hal_uart.o(i.HAL_UARTEx_GetRxEventType), (4 bytes).
    Removing stm32f2xx_hal_uart.o(i.HAL_UARTEx_ReceiveToIdle), (240 bytes).
    Removing stm32f2xx_hal_uart.o(i.HAL_UARTEx_RxEventCallback), (2 bytes).
    Removing stm32f2xx_hal_uart.o(i.HAL_UART_Abort), (210 bytes).
    Removing stm32f2xx_hal_uart.o(i.HAL_UART_AbortCpltCallback), (2 bytes).
    Removing stm32f2xx_hal_uart.o(i.HAL_UART_AbortReceive), (148 bytes).
    Removing stm32f2xx_hal_uart.o(i.HAL_UART_AbortReceiveCpltCallback), (2 bytes).
    Removing stm32f2xx_hal_uart.o(i.HAL_UART_AbortReceive_IT), (152 bytes).
    Removing stm32f2xx_hal_uart.o(i.HAL_UART_AbortTransmit), (98 bytes).
    Removing stm32f2xx_hal_uart.o(i.HAL_UART_AbortTransmitCpltCallback), (2 bytes).
    Removing stm32f2xx_hal_uart.o(i.HAL_UART_AbortTransmit_IT), (104 bytes).
    Removing stm32f2xx_hal_uart.o(i.HAL_UART_Abort_IT), (244 bytes).
    Removing stm32f2xx_hal_uart.o(i.HAL_UART_DMAPause), (120 bytes).
    Removing stm32f2xx_hal_uart.o(i.HAL_UART_DMAResume), (114 bytes).
    Removing stm32f2xx_hal_uart.o(i.HAL_UART_DMAStop), (112 bytes).
    Removing stm32f2xx_hal_uart.o(i.HAL_UART_DeInit), (54 bytes).
    Removing stm32f2xx_hal_uart.o(i.HAL_UART_ErrorCallback), (2 bytes).
    Removing stm32f2xx_hal_uart.o(i.HAL_UART_GetError), (4 bytes).
    Removing stm32f2xx_hal_uart.o(i.HAL_UART_GetState), (10 bytes).
    Removing stm32f2xx_hal_uart.o(i.HAL_UART_MspDeInit), (2 bytes).
    Removing stm32f2xx_hal_uart.o(i.HAL_UART_MspInit), (2 bytes).
    Removing stm32f2xx_hal_uart.o(i.HAL_UART_Receive), (172 bytes).
    Removing stm32f2xx_hal_uart.o(i.HAL_UART_Receive_DMA), (28 bytes).
    Removing stm32f2xx_hal_uart.o(i.HAL_UART_Receive_IT), (28 bytes).
    Removing stm32f2xx_hal_uart.o(i.HAL_UART_Transmit), (154 bytes).
    Removing stm32f2xx_hal_uart.o(i.HAL_UART_TxCpltCallback), (2 bytes).
    Removing stm32f2xx_hal_uart.o(i.UART_DMARxAbortCallback), (44 bytes).
    Removing stm32f2xx_hal_uart.o(i.UART_DMARxOnlyAbortCallback), (22 bytes).
    Removing stm32f2xx_hal_uart.o(i.UART_DMATxAbortCallback), (44 bytes).
    Removing stm32f2xx_hal_uart.o(i.UART_DMATxOnlyAbortCallback), (20 bytes).
    Removing stm32f2xx_hal_uart.o(i.UART_WaitOnFlagUntilTimeout), (120 bytes).
    Removing system_stm32f2xx.o(.rev16_text), (4 bytes).
    Removing system_stm32f2xx.o(.revsh_text), (4 bytes).
    Removing system_stm32f2xx.o(.rrx_text), (6 bytes).
    Removing system_stm32f2xx.o(i.SystemCoreClockUpdate), (120 bytes).

537 unused section(s) (total 38940 bytes) removed from the image.

==============================================================================

Image Symbol Table

    Local Symbols

    Symbol Name                              Value     Ov Type        Size  Object(Section)

    ../Core/Src/adc.c                        0x00000000   Number         0  adc.o ABSOLUTE
    ../Core/Src/dma.c                        0x00000000   Number         0  dma.o ABSOLUTE
    ../Core/Src/gpio.c                       0x00000000   Number         0  gpio.o ABSOLUTE
    ../Core/Src/iwdg.c                       0x00000000   Number         0  iwdg.o ABSOLUTE
    ../Core/Src/main.c                       0x00000000   Number         0  main.o ABSOLUTE
    ../Core/Src/rtc.c                        0x00000000   Number         0  rtc.o ABSOLUTE
    ../Core/Src/spi.c                        0x00000000   Number         0  spi.o ABSOLUTE
    ../Core/Src/stm32f2xx_hal_msp.c          0x00000000   Number         0  stm32f2xx_hal_msp.o ABSOLUTE
    ../Core/Src/stm32f2xx_it.c               0x00000000   Number         0  stm32f2xx_it.o ABSOLUTE
    ../Core/Src/system_stm32f2xx.c           0x00000000   Number         0  system_stm32f2xx.o ABSOLUTE
    ../Core/Src/tim.c                        0x00000000   Number         0  tim.o ABSOLUTE
    ../Core/Src/usart.c                      0x00000000   Number         0  usart.o ABSOLUTE
    ../Drivers/STM32F2xx_HAL_Driver/Src/stm32f2xx_hal.c 0x00000000   Number         0  stm32f2xx_hal.o ABSOLUTE
    ../Drivers/STM32F2xx_HAL_Driver/Src/stm32f2xx_hal_adc.c 0x00000000   Number         0  stm32f2xx_hal_adc.o ABSOLUTE
    ../Drivers/STM32F2xx_HAL_Driver/Src/stm32f2xx_hal_adc_ex.c 0x00000000   Number         0  stm32f2xx_hal_adc_ex.o ABSOLUTE
    ../Drivers/STM32F2xx_HAL_Driver/Src/stm32f2xx_hal_cortex.c 0x00000000   Number         0  stm32f2xx_hal_cortex.o ABSOLUTE
    ../Drivers/STM32F2xx_HAL_Driver/Src/stm32f2xx_hal_dma.c 0x00000000   Number         0  stm32f2xx_hal_dma.o ABSOLUTE
    ../Drivers/STM32F2xx_HAL_Driver/Src/stm32f2xx_hal_dma_ex.c 0x00000000   Number         0  stm32f2xx_hal_dma_ex.o ABSOLUTE
    ../Drivers/STM32F2xx_HAL_Driver/Src/stm32f2xx_hal_exti.c 0x00000000   Number         0  stm32f2xx_hal_exti.o ABSOLUTE
    ../Drivers/STM32F2xx_HAL_Driver/Src/stm32f2xx_hal_flash.c 0x00000000   Number         0  stm32f2xx_hal_flash.o ABSOLUTE
    ../Drivers/STM32F2xx_HAL_Driver/Src/stm32f2xx_hal_flash_ex.c 0x00000000   Number         0  stm32f2xx_hal_flash_ex.o ABSOLUTE
    ../Drivers/STM32F2xx_HAL_Driver/Src/stm32f2xx_hal_gpio.c 0x00000000   Number         0  stm32f2xx_hal_gpio.o ABSOLUTE
    ../Drivers/STM32F2xx_HAL_Driver/Src/stm32f2xx_hal_iwdg.c 0x00000000   Number         0  stm32f2xx_hal_iwdg.o ABSOLUTE
    ../Drivers/STM32F2xx_HAL_Driver/Src/stm32f2xx_hal_pwr.c 0x00000000   Number         0  stm32f2xx_hal_pwr.o ABSOLUTE
    ../Drivers/STM32F2xx_HAL_Driver/Src/stm32f2xx_hal_pwr_ex.c 0x00000000   Number         0  stm32f2xx_hal_pwr_ex.o ABSOLUTE
    ../Drivers/STM32F2xx_HAL_Driver/Src/stm32f2xx_hal_rcc.c 0x00000000   Number         0  stm32f2xx_hal_rcc.o ABSOLUTE
    ../Drivers/STM32F2xx_HAL_Driver/Src/stm32f2xx_hal_rcc_ex.c 0x00000000   Number         0  stm32f2xx_hal_rcc_ex.o ABSOLUTE
    ../Drivers/STM32F2xx_HAL_Driver/Src/stm32f2xx_hal_rtc.c 0x00000000   Number         0  stm32f2xx_hal_rtc.o ABSOLUTE
    ../Drivers/STM32F2xx_HAL_Driver/Src/stm32f2xx_hal_rtc_ex.c 0x00000000   Number         0  stm32f2xx_hal_rtc_ex.o ABSOLUTE
    ../Drivers/STM32F2xx_HAL_Driver/Src/stm32f2xx_hal_spi.c 0x00000000   Number         0  stm32f2xx_hal_spi.o ABSOLUTE
    ../Drivers/STM32F2xx_HAL_Driver/Src/stm32f2xx_hal_tim.c 0x00000000   Number         0  stm32f2xx_hal_tim.o ABSOLUTE
    ../Drivers/STM32F2xx_HAL_Driver/Src/stm32f2xx_hal_tim_ex.c 0x00000000   Number         0  stm32f2xx_hal_tim_ex.o ABSOLUTE
    ../Drivers/STM32F2xx_HAL_Driver/Src/stm32f2xx_hal_uart.c 0x00000000   Number         0  stm32f2xx_hal_uart.o ABSOLUTE
    ../clib/angel/boardlib.s                 0x00000000   Number         0  boardshut.o ABSOLUTE
    ../clib/angel/boardlib.s                 0x00000000   Number         0  boardinit3.o ABSOLUTE
    ../clib/angel/boardlib.s                 0x00000000   Number         0  boardinit2.o ABSOLUTE
    ../clib/angel/boardlib.s                 0x00000000   Number         0  boardinit1.o ABSOLUTE
    ../clib/angel/handlers.s                 0x00000000   Number         0  __scatter_copy.o ABSOLUTE
    ../clib/angel/handlers.s                 0x00000000   Number         0  __scatter_zi.o ABSOLUTE
    ../clib/angel/kernel.s                   0x00000000   Number         0  __rtentry.o ABSOLUTE
    ../clib/angel/kernel.s                   0x00000000   Number         0  __rtentry2.o ABSOLUTE
    ../clib/angel/kernel.s                   0x00000000   Number         0  __rtentry4.o ABSOLUTE
    ../clib/angel/kernel.s                   0x00000000   Number         0  rtexit.o ABSOLUTE
    ../clib/angel/kernel.s                   0x00000000   Number         0  rtexit2.o ABSOLUTE
    ../clib/angel/rt.s                       0x00000000   Number         0  aeabi_ldiv0_sigfpe.o ABSOLUTE
    ../clib/angel/rt.s                       0x00000000   Number         0  rt_div0.o ABSOLUTE
    ../clib/angel/rt.s                       0x00000000   Number         0  rt_locale.o ABSOLUTE
    ../clib/angel/rt.s                       0x00000000   Number         0  rt_raise.o ABSOLUTE
    ../clib/angel/rt.s                       0x00000000   Number         0  rt_locale_intlibspace.o ABSOLUTE
    ../clib/angel/rt.s                       0x00000000   Number         0  aeabi_ldiv0.o ABSOLUTE
    ../clib/angel/scatter.s                  0x00000000   Number         0  __scatter.o ABSOLUTE
    ../clib/angel/startup.s                  0x00000000   Number         0  __main.o ABSOLUTE
    ../clib/angel/sys.s                      0x00000000   Number         0  libspace.o ABSOLUTE
    ../clib/angel/sys.s                      0x00000000   Number         0  sys_stackheap_outer.o ABSOLUTE
    ../clib/angel/sys.s                      0x00000000   Number         0  indicate_semi.o ABSOLUTE
    ../clib/angel/sys.s                      0x00000000   Number         0  use_no_semi.o ABSOLUTE
    ../clib/angel/sysapp.c                   0x00000000   Number         0  sys_exit.o ABSOLUTE
    ../clib/angel/sysapp.c                   0x00000000   Number         0  sys_wrch.o ABSOLUTE
    ../clib/angel/sysapp.c                   0x00000000   Number         0  sys_command.o ABSOLUTE
    ../clib/armsys.c                         0x00000000   Number         0  argv_veneer.o ABSOLUTE
    ../clib/armsys.c                         0x00000000   Number         0  _get_argv_nomalloc.o ABSOLUTE
    ../clib/armsys.c                         0x00000000   Number         0  no_argv.o ABSOLUTE
    ../clib/armsys.c                         0x00000000   Number         0  argv_veneer.o ABSOLUTE
    ../clib/bigflt.c                         0x00000000   Number         0  bigflt0.o ABSOLUTE
    ../clib/btod.s                           0x00000000   Number         0  btod.o ABSOLUTE
    ../clib/heapalloc.c                      0x00000000   Number         0  hrguard.o ABSOLUTE
    ../clib/heapaux.c                        0x00000000   Number         0  heapauxi.o ABSOLUTE
    ../clib/libinit.s                        0x00000000   Number         0  libinit2.o ABSOLUTE
    ../clib/libinit.s                        0x00000000   Number         0  libshutdown2.o ABSOLUTE
    ../clib/libinit.s                        0x00000000   Number         0  libinit.o ABSOLUTE
    ../clib/libinit.s                        0x00000000   Number         0  libshutdown.o ABSOLUTE
    ../clib/locale.s                         0x00000000   Number         0  lc_numeric_c.o ABSOLUTE
    ../clib/longlong.s                       0x00000000   Number         0  lludivv7m.o ABSOLUTE
    ../clib/longlong.s                       0x00000000   Number         0  lludiv10.o ABSOLUTE
    ../clib/memcpset.s                       0x00000000   Number         0  strcmpv7m.o ABSOLUTE
    ../clib/memcpset.s                       0x00000000   Number         0  rt_memclr_w.o ABSOLUTE
    ../clib/misc.s                           0x00000000   Number         0  printf_stubs.o ABSOLUTE
    ../clib/printf.c                         0x00000000   Number         0  __printf_flags.o ABSOLUTE
    ../clib/printf.c                         0x00000000   Number         0  __printf_nopercent.o ABSOLUTE
    ../clib/printf.c                         0x00000000   Number         0  _printf_fp_infnan.o ABSOLUTE
    ../clib/printf.c                         0x00000000   Number         0  _printf_hex_int_ll_ptr.o ABSOLUTE
    ../clib/printf.c                         0x00000000   Number         0  _printf_hex_ll_ptr.o ABSOLUTE
    ../clib/printf.c                         0x00000000   Number         0  _printf_hex_int_ptr.o ABSOLUTE
    ../clib/printf.c                         0x00000000   Number         0  _printf_hex_ptr.o ABSOLUTE
    ../clib/printf.c                         0x00000000   Number         0  _printf_hex_int_ll.o ABSOLUTE
    ../clib/printf.c                         0x00000000   Number         0  _printf_hex_int.o ABSOLUTE
    ../clib/printf.c                         0x00000000   Number         0  _printf_hex_ll.o ABSOLUTE
    ../clib/printf.c                         0x00000000   Number         0  _printf_dec.o ABSOLUTE
    ../clib/printf.c                         0x00000000   Number         0  _printf_str.o ABSOLUTE
    ../clib/printf.c                         0x00000000   Number         0  _printf_pad.o ABSOLUTE
    ../clib/printf.c                         0x00000000   Number         0  __printf.o ABSOLUTE
    ../clib/printf.c                         0x00000000   Number         0  noretval__2sprintf.o ABSOLUTE
    ../clib/printf.c                         0x00000000   Number         0  _printf_char.o ABSOLUTE
    ../clib/printf.c                         0x00000000   Number         0  _sputc.o ABSOLUTE
    ../clib/printf.c                         0x00000000   Number         0  _printf_char_common.o ABSOLUTE
    ../clib/printf.c                         0x00000000   Number         0  _printf_fp_dec.o ABSOLUTE
    ../clib/printf.c                         0x00000000   Number         0  _printf_intcommon.o ABSOLUTE
    ../clib/printf.c                         0x00000000   Number         0  __2sprintf.o ABSOLUTE
    ../clib/printf.c                         0x00000000   Number         0  __printf_flags_ss_wp.o ABSOLUTE
    ../clib/printf.c                         0x00000000   Number         0  __printf_ss_wp.o ABSOLUTE
    ../clib/printf.c                         0x00000000   Number         0  __printf_flags_wp.o ABSOLUTE
    ../clib/printf.c                         0x00000000   Number         0  __printf_wp.o ABSOLUTE
    ../clib/printf.c                         0x00000000   Number         0  __printf_flags_ss.o ABSOLUTE
    ../clib/printf.c                         0x00000000   Number         0  __printf_ss.o ABSOLUTE
    ../clib/printf_percent.s                 0x00000000   Number         0  _printf_x.o ABSOLUTE
    ../clib/printf_percent.s                 0x00000000   Number         0  _printf_s.o ABSOLUTE
    ../clib/printf_percent.s                 0x00000000   Number         0  _printf_d.o ABSOLUTE
    ../clib/printf_percent.s                 0x00000000   Number         0  _printf_percent_end.o ABSOLUTE
    ../clib/printf_percent.s                 0x00000000   Number         0  _printf_percent.o ABSOLUTE
    ../clib/printf_percent.s                 0x00000000   Number         0  _printf_f.o ABSOLUTE
    ../clib/signal.c                         0x00000000   Number         0  defsig_fpe_inner.o ABSOLUTE
    ../clib/signal.c                         0x00000000   Number         0  defsig_fpe_formal.o ABSOLUTE
    ../clib/signal.c                         0x00000000   Number         0  defsig_rtmem_outer.o ABSOLUTE
    ../clib/signal.c                         0x00000000   Number         0  defsig_fpe_outer.o ABSOLUTE
    ../clib/signal.c                         0x00000000   Number         0  defsig_abrt_inner.o ABSOLUTE
    ../clib/signal.c                         0x00000000   Number         0  defsig_general.o ABSOLUTE
    ../clib/signal.c                         0x00000000   Number         0  __raise.o ABSOLUTE
    ../clib/signal.c                         0x00000000   Number         0  defsig_other.o ABSOLUTE
    ../clib/signal.c                         0x00000000   Number         0  defsig_segv_inner.o ABSOLUTE
    ../clib/signal.c                         0x00000000   Number         0  defsig_cppl_inner.o ABSOLUTE
    ../clib/signal.c                         0x00000000   Number         0  defsig_pvfn_inner.o ABSOLUTE
    ../clib/signal.c                         0x00000000   Number         0  defsig_stak_inner.o ABSOLUTE
    ../clib/signal.c                         0x00000000   Number         0  defsig_rtmem_inner.o ABSOLUTE
    ../clib/signal.c                         0x00000000   Number         0  defsig_rtred_inner.o ABSOLUTE
    ../clib/signal.c                         0x00000000   Number         0  defsig_rtmem_formal.o ABSOLUTE
    ../clib/signal.c                         0x00000000   Number         0  defsig_exit.o ABSOLUTE
    ../clib/signal.s                         0x00000000   Number         0  defsig.o ABSOLUTE
    ../clib/stdlib.c                         0x00000000   Number         0  exit.o ABSOLUTE
    ../clib/string.c                         0x00000000   Number         0  strlen.o ABSOLUTE
    ../fplib/d2f.s                           0x00000000   Number         0  d2f.o ABSOLUTE
    ../fplib/daddsub.s                       0x00000000   Number         0  daddsub_clz.o ABSOLUTE
    ../fplib/dcheck1.s                       0x00000000   Number         0  dcheck1.o ABSOLUTE
    ../fplib/ddiv.s                          0x00000000   Number         0  ddiv.o ABSOLUTE
    ../fplib/dfix.s                          0x00000000   Number         0  dfix.o ABSOLUTE
    ../fplib/dfixu.s                         0x00000000   Number         0  dfixu.o ABSOLUTE
    ../fplib/dflt.s                          0x00000000   Number         0  dflt_clz.o ABSOLUTE
    ../fplib/dmul.s                          0x00000000   Number         0  dmul.o ABSOLUTE
    ../fplib/dnaninf.s                       0x00000000   Number         0  dnaninf.o ABSOLUTE
    ../fplib/dretinf.s                       0x00000000   Number         0  dretinf.o ABSOLUTE
    ../fplib/f2d.s                           0x00000000   Number         0  f2d.o ABSOLUTE
    ../fplib/faddsub.s                       0x00000000   Number         0  faddsub_clz.o ABSOLUTE
    ../fplib/fdiv.s                          0x00000000   Number         0  fdiv.o ABSOLUTE
    ../fplib/ffix.s                          0x00000000   Number         0  ffix.o ABSOLUTE
    ../fplib/fflt.s                          0x00000000   Number         0  fflt_clz.o ABSOLUTE
    ../fplib/fmul.s                          0x00000000   Number         0  fmul.o ABSOLUTE
    ../fplib/fnaninf.s                       0x00000000   Number         0  fnaninf.o ABSOLUTE
    ../fplib/fpinit.s                        0x00000000   Number         0  fpinit.o ABSOLUTE
    ../fplib/fretinf.s                       0x00000000   Number         0  fretinf.o ABSOLUTE
    ../fplib/istatus.s                       0x00000000   Number         0  istatus.o ABSOLUTE
    ../fplib/printf1.s                       0x00000000   Number         0  printf1.o ABSOLUTE
    ../fplib/retnan.s                        0x00000000   Number         0  retnan.o ABSOLUTE
    ../fplib/scalbn.s                        0x00000000   Number         0  scalbn.o ABSOLUTE
    ../fplib/trapv.s                         0x00000000   Number         0  trapv.o ABSOLUTE
    ../fplib/usenofp.s                       0x00000000   Number         0  usenofp.o ABSOLUTE
    ../mathlib/fpclassify.c                  0x00000000   Number         0  fpclassify.o ABSOLUTE
    ..\Core\Src\adc.c                        0x00000000   Number         0  adc.o ABSOLUTE
    ..\Core\Src\dma.c                        0x00000000   Number         0  dma.o ABSOLUTE
    ..\Core\Src\gpio.c                       0x00000000   Number         0  gpio.o ABSOLUTE
    ..\Core\Src\iwdg.c                       0x00000000   Number         0  iwdg.o ABSOLUTE
    ..\Core\Src\main.c                       0x00000000   Number         0  main.o ABSOLUTE
    ..\Core\Src\rtc.c                        0x00000000   Number         0  rtc.o ABSOLUTE
    ..\Core\Src\spi.c                        0x00000000   Number         0  spi.o ABSOLUTE
    ..\Core\Src\stm32f2xx_hal_msp.c          0x00000000   Number         0  stm32f2xx_hal_msp.o ABSOLUTE
    ..\Core\Src\stm32f2xx_it.c               0x00000000   Number         0  stm32f2xx_it.o ABSOLUTE
    ..\Core\Src\system_stm32f2xx.c           0x00000000   Number         0  system_stm32f2xx.o ABSOLUTE
    ..\Core\Src\tim.c                        0x00000000   Number         0  tim.o ABSOLUTE
    ..\Core\Src\usart.c                      0x00000000   Number         0  usart.o ABSOLUTE
    ..\Drivers\STM32F2xx_HAL_Driver\Src\stm32f2xx_hal.c 0x00000000   Number         0  stm32f2xx_hal.o ABSOLUTE
    ..\Drivers\STM32F2xx_HAL_Driver\Src\stm32f2xx_hal_adc.c 0x00000000   Number         0  stm32f2xx_hal_adc.o ABSOLUTE
    ..\Drivers\STM32F2xx_HAL_Driver\Src\stm32f2xx_hal_adc_ex.c 0x00000000   Number         0  stm32f2xx_hal_adc_ex.o ABSOLUTE
    ..\Drivers\STM32F2xx_HAL_Driver\Src\stm32f2xx_hal_cortex.c 0x00000000   Number         0  stm32f2xx_hal_cortex.o ABSOLUTE
    ..\Drivers\STM32F2xx_HAL_Driver\Src\stm32f2xx_hal_dma.c 0x00000000   Number         0  stm32f2xx_hal_dma.o ABSOLUTE
    ..\Drivers\STM32F2xx_HAL_Driver\Src\stm32f2xx_hal_dma_ex.c 0x00000000   Number         0  stm32f2xx_hal_dma_ex.o ABSOLUTE
    ..\Drivers\STM32F2xx_HAL_Driver\Src\stm32f2xx_hal_exti.c 0x00000000   Number         0  stm32f2xx_hal_exti.o ABSOLUTE
    ..\Drivers\STM32F2xx_HAL_Driver\Src\stm32f2xx_hal_flash.c 0x00000000   Number         0  stm32f2xx_hal_flash.o ABSOLUTE
    ..\Drivers\STM32F2xx_HAL_Driver\Src\stm32f2xx_hal_flash_ex.c 0x00000000   Number         0  stm32f2xx_hal_flash_ex.o ABSOLUTE
    ..\Drivers\STM32F2xx_HAL_Driver\Src\stm32f2xx_hal_gpio.c 0x00000000   Number         0  stm32f2xx_hal_gpio.o ABSOLUTE
    ..\Drivers\STM32F2xx_HAL_Driver\Src\stm32f2xx_hal_iwdg.c 0x00000000   Number         0  stm32f2xx_hal_iwdg.o ABSOLUTE
    ..\Drivers\STM32F2xx_HAL_Driver\Src\stm32f2xx_hal_pwr.c 0x00000000   Number         0  stm32f2xx_hal_pwr.o ABSOLUTE
    ..\Drivers\STM32F2xx_HAL_Driver\Src\stm32f2xx_hal_pwr_ex.c 0x00000000   Number         0  stm32f2xx_hal_pwr_ex.o ABSOLUTE
    ..\Drivers\STM32F2xx_HAL_Driver\Src\stm32f2xx_hal_rcc.c 0x00000000   Number         0  stm32f2xx_hal_rcc.o ABSOLUTE
    ..\Drivers\STM32F2xx_HAL_Driver\Src\stm32f2xx_hal_rcc_ex.c 0x00000000   Number         0  stm32f2xx_hal_rcc_ex.o ABSOLUTE
    ..\Drivers\STM32F2xx_HAL_Driver\Src\stm32f2xx_hal_rtc.c 0x00000000   Number         0  stm32f2xx_hal_rtc.o ABSOLUTE
    ..\Drivers\STM32F2xx_HAL_Driver\Src\stm32f2xx_hal_rtc_ex.c 0x00000000   Number         0  stm32f2xx_hal_rtc_ex.o ABSOLUTE
    ..\Drivers\STM32F2xx_HAL_Driver\Src\stm32f2xx_hal_spi.c 0x00000000   Number         0  stm32f2xx_hal_spi.o ABSOLUTE
    ..\Drivers\STM32F2xx_HAL_Driver\Src\stm32f2xx_hal_tim.c 0x00000000   Number         0  stm32f2xx_hal_tim.o ABSOLUTE
    ..\Drivers\STM32F2xx_HAL_Driver\Src\stm32f2xx_hal_tim_ex.c 0x00000000   Number         0  stm32f2xx_hal_tim_ex.o ABSOLUTE
    ..\Drivers\STM32F2xx_HAL_Driver\Src\stm32f2xx_hal_uart.c 0x00000000   Number         0  stm32f2xx_hal_uart.o ABSOLUTE
    dc.s                                     0x00000000   Number         0  dc.o ABSOLUTE
    startup_stm32f205xx.s                    0x00000000   Number         0  startup_stm32f205xx.o ABSOLUTE
    RESET                                    0x08000000   Section      388  startup_stm32f205xx.o(RESET)
    !!!main                                  0x08000184   Section        8  __main.o(!!!main)
    !!!scatter                               0x0800018c   Section       52  __scatter.o(!!!scatter)
    !!handler_copy                           0x080001c0   Section       26  __scatter_copy.o(!!handler_copy)
    !!handler_zi                             0x080001dc   Section       28  __scatter_zi.o(!!handler_zi)
    .ARM.Collect$$_printf_percent$$00000000  0x080001f8   Section        0  _printf_percent.o(.ARM.Collect$$_printf_percent$$00000000)
    .ARM.Collect$$_printf_percent$$00000003  0x080001f8   Section        6  _printf_f.o(.ARM.Collect$$_printf_percent$$00000003)
    .ARM.Collect$$_printf_percent$$00000009  0x080001fe   Section        6  _printf_d.o(.ARM.Collect$$_printf_percent$$00000009)
    .ARM.Collect$$_printf_percent$$0000000C  0x08000204   Section        6  _printf_x.o(.ARM.Collect$$_printf_percent$$0000000C)
    .ARM.Collect$$_printf_percent$$00000014  0x0800020a   Section        6  _printf_s.o(.ARM.Collect$$_printf_percent$$00000014)
    .ARM.Collect$$_printf_percent$$00000017  0x08000210   Section        4  _printf_percent_end.o(.ARM.Collect$$_printf_percent$$00000017)
    .ARM.Collect$$libinit$$00000000          0x08000214   Section        2  libinit.o(.ARM.Collect$$libinit$$00000000)
    .ARM.Collect$$libinit$$00000002          0x08000216   Section        0  libinit2.o(.ARM.Collect$$libinit$$00000002)
    .ARM.Collect$$libinit$$00000004          0x08000216   Section        0  libinit2.o(.ARM.Collect$$libinit$$00000004)
    .ARM.Collect$$libinit$$0000000A          0x08000216   Section        0  libinit2.o(.ARM.Collect$$libinit$$0000000A)
    .ARM.Collect$$libinit$$0000000C          0x08000216   Section        0  libinit2.o(.ARM.Collect$$libinit$$0000000C)
    .ARM.Collect$$libinit$$0000000E          0x08000216   Section        0  libinit2.o(.ARM.Collect$$libinit$$0000000E)
    .ARM.Collect$$libinit$$0000000F          0x08000216   Section        6  libinit2.o(.ARM.Collect$$libinit$$0000000F)
    .ARM.Collect$$libinit$$00000011          0x0800021c   Section        0  libinit2.o(.ARM.Collect$$libinit$$00000011)
    .ARM.Collect$$libinit$$00000013          0x0800021c   Section        0  libinit2.o(.ARM.Collect$$libinit$$00000013)
    .ARM.Collect$$libinit$$00000015          0x0800021c   Section        0  libinit2.o(.ARM.Collect$$libinit$$00000015)
    .ARM.Collect$$libinit$$00000016          0x0800021c   Section       10  libinit2.o(.ARM.Collect$$libinit$$00000016)
    .ARM.Collect$$libinit$$00000017          0x08000226   Section        0  libinit2.o(.ARM.Collect$$libinit$$00000017)
    .ARM.Collect$$libinit$$00000019          0x08000226   Section        0  libinit2.o(.ARM.Collect$$libinit$$00000019)
    .ARM.Collect$$libinit$$0000001B          0x08000226   Section        0  libinit2.o(.ARM.Collect$$libinit$$0000001B)
    .ARM.Collect$$libinit$$0000001D          0x08000226   Section        0  libinit2.o(.ARM.Collect$$libinit$$0000001D)
    .ARM.Collect$$libinit$$0000001F          0x08000226   Section        0  libinit2.o(.ARM.Collect$$libinit$$0000001F)
    .ARM.Collect$$libinit$$00000021          0x08000226   Section        0  libinit2.o(.ARM.Collect$$libinit$$00000021)
    .ARM.Collect$$libinit$$00000023          0x08000226   Section        0  libinit2.o(.ARM.Collect$$libinit$$00000023)
    .ARM.Collect$$libinit$$00000025          0x08000226   Section        0  libinit2.o(.ARM.Collect$$libinit$$00000025)
    .ARM.Collect$$libinit$$0000002C          0x08000226   Section        0  libinit2.o(.ARM.Collect$$libinit$$0000002C)
    .ARM.Collect$$libinit$$0000002E          0x08000226   Section        0  libinit2.o(.ARM.Collect$$libinit$$0000002E)
    .ARM.Collect$$libinit$$00000030          0x08000226   Section        0  libinit2.o(.ARM.Collect$$libinit$$00000030)
    .ARM.Collect$$libinit$$00000032          0x08000226   Section        0  libinit2.o(.ARM.Collect$$libinit$$00000032)
    .ARM.Collect$$libinit$$00000033          0x08000226   Section        2  libinit2.o(.ARM.Collect$$libinit$$00000033)
    .ARM.Collect$$libshutdown$$00000000      0x08000228   Section        2  libshutdown.o(.ARM.Collect$$libshutdown$$00000000)
    .ARM.Collect$$libshutdown$$00000002      0x0800022a   Section        0  libshutdown2.o(.ARM.Collect$$libshutdown$$00000002)
    .ARM.Collect$$libshutdown$$00000004      0x0800022a   Section        0  libshutdown2.o(.ARM.Collect$$libshutdown$$00000004)
    .ARM.Collect$$libshutdown$$00000006      0x0800022a   Section        0  libshutdown2.o(.ARM.Collect$$libshutdown$$00000006)
    .ARM.Collect$$libshutdown$$00000009      0x0800022a   Section        0  libshutdown2.o(.ARM.Collect$$libshutdown$$00000009)
    .ARM.Collect$$libshutdown$$0000000C      0x0800022a   Section        0  libshutdown2.o(.ARM.Collect$$libshutdown$$0000000C)
    .ARM.Collect$$libshutdown$$0000000E      0x0800022a   Section        0  libshutdown2.o(.ARM.Collect$$libshutdown$$0000000E)
    .ARM.Collect$$libshutdown$$00000011      0x0800022a   Section        0  libshutdown2.o(.ARM.Collect$$libshutdown$$00000011)
    .ARM.Collect$$libshutdown$$00000012      0x0800022a   Section        2  libshutdown2.o(.ARM.Collect$$libshutdown$$00000012)
    .ARM.Collect$$rtentry$$00000000          0x0800022c   Section        0  __rtentry.o(.ARM.Collect$$rtentry$$00000000)
    .ARM.Collect$$rtentry$$00000002          0x0800022c   Section        0  __rtentry2.o(.ARM.Collect$$rtentry$$00000002)
    .ARM.Collect$$rtentry$$00000004          0x0800022c   Section        6  __rtentry4.o(.ARM.Collect$$rtentry$$00000004)
    .ARM.Collect$$rtentry$$00000009          0x08000232   Section        0  __rtentry2.o(.ARM.Collect$$rtentry$$00000009)
    .ARM.Collect$$rtentry$$0000000A          0x08000232   Section        4  __rtentry2.o(.ARM.Collect$$rtentry$$0000000A)
    .ARM.Collect$$rtentry$$0000000C          0x08000236   Section        0  __rtentry2.o(.ARM.Collect$$rtentry$$0000000C)
    .ARM.Collect$$rtentry$$0000000D          0x08000236   Section        8  __rtentry2.o(.ARM.Collect$$rtentry$$0000000D)
    .ARM.Collect$$rtexit$$00000000           0x0800023e   Section        2  rtexit.o(.ARM.Collect$$rtexit$$00000000)
    .ARM.Collect$$rtexit$$00000002           0x08000240   Section        0  rtexit2.o(.ARM.Collect$$rtexit$$00000002)
    .ARM.Collect$$rtexit$$00000003           0x08000240   Section        4  rtexit2.o(.ARM.Collect$$rtexit$$00000003)
    .ARM.Collect$$rtexit$$00000004           0x08000244   Section        6  rtexit2.o(.ARM.Collect$$rtexit$$00000004)
    .text                                    0x0800024c   Section       64  startup_stm32f205xx.o(.text)
    .text                                    0x0800028c   Section      238  lludivv7m.o(.text)
    .text                                    0x0800037c   Section        0  noretval__2sprintf.o(.text)
    .text                                    0x080003a4   Section        0  _printf_pad.o(.text)
    .text                                    0x080003f2   Section        0  _printf_str.o(.text)
    .text                                    0x08000444   Section        0  _printf_dec.o(.text)
    .text                                    0x080004bc   Section        0  _printf_hex_int.o(.text)
    .text                                    0x08000514   Section        0  __printf_flags_wp.o(.text)
    .text                                    0x0800064c   Section        0  strlen.o(.text)
    .text                                    0x0800068a   Section       78  rt_memclr_w.o(.text)
    .text                                    0x080006d8   Section        0  heapauxi.o(.text)
    .text                                    0x080006de   Section        0  _printf_intcommon.o(.text)
    .text                                    0x08000790   Section        0  _printf_fp_dec.o(.text)
    _fp_digits                               0x08000793   Thumb Code   432  _printf_fp_dec.o(.text)
    .text                                    0x08000bb0   Section        0  _printf_char_common.o(.text)
    _printf_input_char                       0x08000bb1   Thumb Code    10  _printf_char_common.o(.text)
    .text                                    0x08000be0   Section        0  _sputc.o(.text)
    .text                                    0x08000bea   Section        0  _printf_char.o(.text)
    .text                                    0x08000c18   Section        8  rt_locale_intlibspace.o(.text)
    .text                                    0x08000c20   Section      138  lludiv10.o(.text)
    .text                                    0x08000cac   Section        0  _printf_fp_infnan.o(.text)
    .text                                    0x08000d2c   Section        0  bigflt0.o(.text)
    .text                                    0x08000e10   Section        8  libspace.o(.text)
    .text                                    0x08000e18   Section       74  sys_stackheap_outer.o(.text)
    .text                                    0x08000e62   Section        0  exit.o(.text)
    .text                                    0x08000e74   Section      128  strcmpv7m.o(.text)
    .text                                    0x08000ef4   Section        0  sys_exit.o(.text)
    .text                                    0x08000f00   Section        2  use_no_semi.o(.text)
    .text                                    0x08000f02   Section        0  indicate_semi.o(.text)
    CL$$btod_d2e                             0x08000f02   Section       62  btod.o(CL$$btod_d2e)
    CL$$btod_d2e_denorm_low                  0x08000f40   Section       70  btod.o(CL$$btod_d2e_denorm_low)
    CL$$btod_d2e_norm_op1                    0x08000f86   Section       96  btod.o(CL$$btod_d2e_norm_op1)
    CL$$btod_div_common                      0x08000fe6   Section      824  btod.o(CL$$btod_div_common)
    CL$$btod_e2e                             0x0800131e   Section      220  btod.o(CL$$btod_e2e)
    CL$$btod_ediv                            0x080013fa   Section       42  btod.o(CL$$btod_ediv)
    CL$$btod_emul                            0x08001424   Section       42  btod.o(CL$$btod_emul)
    CL$$btod_mult_common                     0x0800144e   Section      580  btod.o(CL$$btod_mult_common)
    i.ADCFilter                              0x08001694   Section        0  adc.o(i.ADCFilter)
    i.ADC_Init                               0x08001734   Section        0  stm32f2xx_hal_adc.o(i.ADC_Init)
    ADC_Init                                 0x08001735   Thumb Code   304  stm32f2xx_hal_adc.o(i.ADC_Init)
    i.AdcConvert                             0x0800186c   Section        0  adc.o(i.AdcConvert)
    i.AdcFilterValue                         0x08001904   Section        0  adc.o(i.AdcFilterValue)
    i.AdcSetSpeed                            0x08001934   Section        0  usart.o(i.AdcSetSpeed)
    i.AddHistorySampleDateFloat              0x080019a8   Section        0  usart.o(i.AddHistorySampleDateFloat)
    i.AddHistorySampleDateFloatTwice         0x08001a08   Section        0  usart.o(i.AddHistorySampleDateFloatTwice)
    i.BIN2BCD                                0x08001a84   Section        0  usart.o(i.BIN2BCD)
    i.BatteryDealt                           0x08001a9c   Section        0  usart.o(i.BatteryDealt)
    i.BatteryGetData                         0x08001ae0   Section        0  usart.o(i.BatteryGetData)
    i.BatteryUpDate                          0x08001b3c   Section        0  usart.o(i.BatteryUpDate)
    i.BubbleTimer                            0x08001bf8   Section        0  usart.o(i.BubbleTimer)
    i.BusFault_Handler                       0x08001c78   Section        0  stm32f2xx_it.o(i.BusFault_Handler)
    i.ChangeCurveRange                       0x08001c7a   Section        0  usart.o(i.ChangeCurveRange)
    i.ChangeIconFrame                        0x08001cf2   Section        0  usart.o(i.ChangeIconFrame)
    i.ChangePSWTxt                           0x08001d44   Section        0  usart.o(i.ChangePSWTxt)
    i.ChangeScreen                           0x08001dbc   Section        0  usart.o(i.ChangeScreen)
    i.ChangeSelectorIndex                    0x08001dfa   Section        0  usart.o(i.ChangeSelectorIndex)
    i.ChangeSetSpeed                         0x08001e48   Section        0  usart.o(i.ChangeSetSpeed)
    i.ChangeSetTemp                          0x08001e78   Section        0  usart.o(i.ChangeSetTemp)
    i.ChangeTxtValue                         0x08001ebc   Section        0  usart.o(i.ChangeTxtValue)
    i.ClearTxtContent                        0x08001f74   Section        0  usart.o(i.ClearTxtContent)
    i.DMA2_Stream2_IRQHandler                0x08001fbc   Section        0  stm32f2xx_it.o(i.DMA2_Stream2_IRQHandler)
    i.DMA2_Stream7_IRQHandler                0x08001fc8   Section        0  stm32f2xx_it.o(i.DMA2_Stream7_IRQHandler)
    i.DMA_CalcBaseAndBitshift                0x08001fd4   Section        0  stm32f2xx_hal_dma.o(i.DMA_CalcBaseAndBitshift)
    DMA_CalcBaseAndBitshift                  0x08001fd5   Thumb Code    34  stm32f2xx_hal_dma.o(i.DMA_CalcBaseAndBitshift)
    i.DMA_CheckFifoParam                     0x08001ffc   Section        0  stm32f2xx_hal_dma.o(i.DMA_CheckFifoParam)
    DMA_CheckFifoParam                       0x08001ffd   Thumb Code    84  stm32f2xx_hal_dma.o(i.DMA_CheckFifoParam)
    i.DMA_SetConfig                          0x08002050   Section        0  stm32f2xx_hal_dma.o(i.DMA_SetConfig)
    DMA_SetConfig                            0x08002051   Thumb Code    40  stm32f2xx_hal_dma.o(i.DMA_SetConfig)
    i.DebugMon_Handler                       0x08002078   Section        0  stm32f2xx_it.o(i.DebugMon_Handler)
    i.Error_Handler                          0x0800207a   Section        0  main.o(i.Error_Handler)
    i.FLowGetData                            0x08002080   Section        0  usart.o(i.FLowGetData)
    i.FlowDealt                              0x08002098   Section        0  usart.o(i.FlowDealt)
    i.FlowGetMeasure                         0x080021f8   Section        0  usart.o(i.FlowGetMeasure)
    i.FlowSetBuble                           0x08002264   Section        0  usart.o(i.FlowSetBuble)
    i.GetRTCFromHMI                          0x080022e8   Section        0  usart.o(i.GetRTCFromHMI)
    i.GpioChk                                0x08002318   Section        0  gpio.o(i.GpioChk)
    i.HAL_ADC_ConfigChannel                  0x0800241c   Section        0  stm32f2xx_hal_adc.o(i.HAL_ADC_ConfigChannel)
    i.HAL_ADC_GetValue                       0x0800256c   Section        0  stm32f2xx_hal_adc.o(i.HAL_ADC_GetValue)
    i.HAL_ADC_Init                           0x08002572   Section        0  stm32f2xx_hal_adc.o(i.HAL_ADC_Init)
    i.HAL_ADC_MspInit                        0x080025c8   Section        0  adc.o(i.HAL_ADC_MspInit)
    i.HAL_ADC_Start                          0x0800264c   Section        0  stm32f2xx_hal_adc.o(i.HAL_ADC_Start)
    i.HAL_ADC_Stop                           0x08002714   Section        0  stm32f2xx_hal_adc.o(i.HAL_ADC_Stop)
    i.HAL_DMA_Abort                          0x08002750   Section        0  stm32f2xx_hal_dma.o(i.HAL_DMA_Abort)
    i.HAL_DMA_Abort_IT                       0x080027e2   Section        0  stm32f2xx_hal_dma.o(i.HAL_DMA_Abort_IT)
    i.HAL_DMA_IRQHandler                     0x08002808   Section        0  stm32f2xx_hal_dma.o(i.HAL_DMA_IRQHandler)
    i.HAL_DMA_Init                           0x080029a8   Section        0  stm32f2xx_hal_dma.o(i.HAL_DMA_Init)
    i.HAL_DMA_Start_IT                       0x08002a7c   Section        0  stm32f2xx_hal_dma.o(i.HAL_DMA_Start_IT)
    i.HAL_Delay                              0x08002aec   Section        0  stm32f2xx_hal.o(i.HAL_Delay)
    i.HAL_GPIO_Init                          0x08002b10   Section        0  stm32f2xx_hal_gpio.o(i.HAL_GPIO_Init)
    i.HAL_GPIO_ReadPin                       0x08002d98   Section        0  stm32f2xx_hal_gpio.o(i.HAL_GPIO_ReadPin)
    i.HAL_GPIO_TogglePin                     0x08002da2   Section        0  stm32f2xx_hal_gpio.o(i.HAL_GPIO_TogglePin)
    i.HAL_GPIO_WritePin                      0x08002db2   Section        0  stm32f2xx_hal_gpio.o(i.HAL_GPIO_WritePin)
    i.HAL_GetTick                            0x08002dbc   Section        0  stm32f2xx_hal.o(i.HAL_GetTick)
    i.HAL_IncTick                            0x08002dc8   Section        0  stm32f2xx_hal.o(i.HAL_IncTick)
    i.HAL_Init                               0x08002dd8   Section        0  stm32f2xx_hal.o(i.HAL_Init)
    i.HAL_InitTick                           0x08002e0c   Section        0  stm32f2xx_hal.o(i.HAL_InitTick)
    i.HAL_MspInit                            0x08002e4c   Section        0  stm32f2xx_hal_msp.o(i.HAL_MspInit)
    i.HAL_NVIC_EnableIRQ                     0x08002e7c   Section        0  stm32f2xx_hal_cortex.o(i.HAL_NVIC_EnableIRQ)
    i.HAL_NVIC_SetPriority                   0x08002e98   Section        0  stm32f2xx_hal_cortex.o(i.HAL_NVIC_SetPriority)
    i.HAL_NVIC_SetPriorityGrouping           0x08002ed8   Section        0  stm32f2xx_hal_cortex.o(i.HAL_NVIC_SetPriorityGrouping)
    i.HAL_RCCEx_PeriphCLKConfig              0x08002efc   Section        0  stm32f2xx_hal_rcc_ex.o(i.HAL_RCCEx_PeriphCLKConfig)
    i.HAL_RCC_ClockConfig                    0x08003050   Section        0  stm32f2xx_hal_rcc.o(i.HAL_RCC_ClockConfig)
    i.HAL_RCC_GetPCLK1Freq                   0x0800318c   Section        0  stm32f2xx_hal_rcc.o(i.HAL_RCC_GetPCLK1Freq)
    i.HAL_RCC_GetPCLK2Freq                   0x080031bc   Section        0  stm32f2xx_hal_rcc.o(i.HAL_RCC_GetPCLK2Freq)
    i.HAL_RCC_GetSysClockFreq                0x080031ec   Section        0  stm32f2xx_hal_rcc.o(i.HAL_RCC_GetSysClockFreq)
    i.HAL_RCC_OscConfig                      0x0800324c   Section        0  stm32f2xx_hal_rcc.o(i.HAL_RCC_OscConfig)
    i.HAL_RTC_GetDate                        0x08003598   Section        0  stm32f2xx_hal_rtc.o(i.HAL_RTC_GetDate)
    i.HAL_RTC_GetTime                        0x080035dc   Section        0  stm32f2xx_hal_rtc.o(i.HAL_RTC_GetTime)
    i.HAL_RTC_Init                           0x08003620   Section        0  stm32f2xx_hal_rtc.o(i.HAL_RTC_Init)
    i.HAL_RTC_MspInit                        0x080036bc   Section        0  rtc.o(i.HAL_RTC_MspInit)
    i.HAL_RTC_SetDate                        0x080036d4   Section        0  stm32f2xx_hal_rtc.o(i.HAL_RTC_SetDate)
    i.HAL_RTC_SetTime                        0x0800376c   Section        0  stm32f2xx_hal_rtc.o(i.HAL_RTC_SetTime)
    i.HAL_RTC_WaitForSynchro                 0x0800382c   Section        0  stm32f2xx_hal_rtc.o(i.HAL_RTC_WaitForSynchro)
    i.HAL_SPI_Init                           0x0800385e   Section        0  stm32f2xx_hal_spi.o(i.HAL_SPI_Init)
    i.HAL_SPI_MspInit                        0x0800391c   Section        0  spi.o(i.HAL_SPI_MspInit)
    i.HAL_SPI_TransmitReceive                0x08003988   Section        0  stm32f2xx_hal_spi.o(i.HAL_SPI_TransmitReceive)
    i.HAL_SYSTICK_Config                     0x08003b76   Section        0  stm32f2xx_hal_cortex.o(i.HAL_SYSTICK_Config)
    i.HAL_TIMEx_BreakCallback                0x08003b9e   Section        0  stm32f2xx_hal_tim_ex.o(i.HAL_TIMEx_BreakCallback)
    i.HAL_TIMEx_CommutCallback               0x08003ba0   Section        0  stm32f2xx_hal_tim_ex.o(i.HAL_TIMEx_CommutCallback)
    i.HAL_TIMEx_MasterConfigSynchronization  0x08003ba4   Section        0  stm32f2xx_hal_tim_ex.o(i.HAL_TIMEx_MasterConfigSynchronization)
    i.HAL_TIM_Base_Init                      0x08003c34   Section        0  stm32f2xx_hal_tim.o(i.HAL_TIM_Base_Init)
    i.HAL_TIM_Base_MspInit                   0x08003c90   Section        0  tim.o(i.HAL_TIM_Base_MspInit)
    i.HAL_TIM_Base_Start                     0x08003ce4   Section        0  stm32f2xx_hal_tim.o(i.HAL_TIM_Base_Start)
    i.HAL_TIM_Base_Start_IT                  0x08003d5c   Section        0  stm32f2xx_hal_tim.o(i.HAL_TIM_Base_Start_IT)
    i.HAL_TIM_Base_Stop                      0x08003ddc   Section        0  stm32f2xx_hal_tim.o(i.HAL_TIM_Base_Stop)
    i.HAL_TIM_IC_CaptureCallback             0x08003e02   Section        0  stm32f2xx_hal_tim.o(i.HAL_TIM_IC_CaptureCallback)
    i.HAL_TIM_IRQHandler                     0x08003e04   Section        0  stm32f2xx_hal_tim.o(i.HAL_TIM_IRQHandler)
    i.HAL_TIM_MspPostInit                    0x08003f6c   Section        0  tim.o(i.HAL_TIM_MspPostInit)
    i.HAL_TIM_OC_DelayElapsedCallback        0x08003fbc   Section        0  stm32f2xx_hal_tim.o(i.HAL_TIM_OC_DelayElapsedCallback)
    i.HAL_TIM_PWM_ConfigChannel              0x08003fbe   Section        0  stm32f2xx_hal_tim.o(i.HAL_TIM_PWM_ConfigChannel)
    i.HAL_TIM_PWM_Init                       0x0800408a   Section        0  stm32f2xx_hal_tim.o(i.HAL_TIM_PWM_Init)
    i.HAL_TIM_PWM_MspInit                    0x080040e4   Section        0  tim.o(i.HAL_TIM_PWM_MspInit)
    i.HAL_TIM_PWM_PulseFinishedCallback      0x0800410c   Section        0  stm32f2xx_hal_tim.o(i.HAL_TIM_PWM_PulseFinishedCallback)
    i.HAL_TIM_PWM_Start                      0x08004110   Section        0  stm32f2xx_hal_tim.o(i.HAL_TIM_PWM_Start)
    i.HAL_TIM_PWM_Stop                       0x080041d8   Section        0  stm32f2xx_hal_tim.o(i.HAL_TIM_PWM_Stop)
    i.HAL_TIM_PeriodElapsedCallback          0x08004254   Section        0  usart.o(i.HAL_TIM_PeriodElapsedCallback)
    i.HAL_TIM_TriggerCallback                0x080042a8   Section        0  stm32f2xx_hal_tim.o(i.HAL_TIM_TriggerCallback)
    i.HAL_UARTEx_ReceiveToIdle_DMA           0x080042aa   Section        0  stm32f2xx_hal_uart.o(i.HAL_UARTEx_ReceiveToIdle_DMA)
    i.HAL_UARTEx_ReceiveToIdle_IT            0x080042f8   Section        0  stm32f2xx_hal_uart.o(i.HAL_UARTEx_ReceiveToIdle_IT)
    i.HAL_UARTEx_RxEventCallback             0x08004348   Section        0  usart.o(i.HAL_UARTEx_RxEventCallback)
    i.HAL_UART_ErrorCallback                 0x08004428   Section        0  usart.o(i.HAL_UART_ErrorCallback)
    i.HAL_UART_IRQHandler                    0x08004448   Section        0  stm32f2xx_hal_uart.o(i.HAL_UART_IRQHandler)
    i.HAL_UART_Init                          0x080046b8   Section        0  stm32f2xx_hal_uart.o(i.HAL_UART_Init)
    i.HAL_UART_MspInit                       0x0800471c   Section        0  usart.o(i.HAL_UART_MspInit)
    i.HAL_UART_RxCpltCallback                0x08004978   Section        0  stm32f2xx_hal_uart.o(i.HAL_UART_RxCpltCallback)
    i.HAL_UART_RxHalfCpltCallback            0x0800497a   Section        0  stm32f2xx_hal_uart.o(i.HAL_UART_RxHalfCpltCallback)
    i.HAL_UART_Transmit_DMA                  0x0800497c   Section        0  stm32f2xx_hal_uart.o(i.HAL_UART_Transmit_DMA)
    i.HAL_UART_Transmit_IT                   0x080049f4   Section        0  stm32f2xx_hal_uart.o(i.HAL_UART_Transmit_IT)
    i.HAL_UART_TxCpltCallback                0x08004a28   Section        0  usart.o(i.HAL_UART_TxCpltCallback)
    i.HAL_UART_TxHalfCpltCallback            0x08004aa4   Section        0  stm32f2xx_hal_uart.o(i.HAL_UART_TxHalfCpltCallback)
    i.HardFault_Handler                      0x08004aa6   Section        0  stm32f2xx_it.o(i.HardFault_Handler)
    i.HmiAdjustDected                        0x08004aa8   Section        0  usart.o(i.HmiAdjustDected)
    i.HmiCmdDealt                            0x08004b10   Section        0  usart.o(i.HmiCmdDealt)
    i.HmiWorkTimerRefresh                    0x08004ea0   Section        0  usart.o(i.HmiWorkTimerRefresh)
    i.IBPChkSum                              0x08004fb0   Section        0  usart.o(i.IBPChkSum)
    i.IBPCmdSend                             0x08004fd0   Section        0  usart.o(i.IBPCmdSend)
    i.IBPDataAnalysis                        0x08005118   Section        0  usart.o(i.IBPDataAnalysis)
    i.MX_ADC1_Init                           0x08005410   Section        0  adc.o(i.MX_ADC1_Init)
    i.MX_DMA_Init                            0x080054d0   Section        0  dma.o(i.MX_DMA_Init)
    i.MX_GPIO_Init                           0x0800550c   Section        0  gpio.o(i.MX_GPIO_Init)
    i.MX_IWDG_Init                           0x08005604   Section        0  iwdg.o(i.MX_IWDG_Init)
    i.MX_RTC_Init                            0x08005608   Section        0  rtc.o(i.MX_RTC_Init)
    i.MX_SPI2_Init                           0x0800563c   Section        0  spi.o(i.MX_SPI2_Init)
    i.MX_TIM4_Init                           0x08005684   Section        0  tim.o(i.MX_TIM4_Init)
    i.MX_TIM6_Init                           0x080056f4   Section        0  tim.o(i.MX_TIM6_Init)
    i.MX_TIM7_Init                           0x08005740   Section        0  tim.o(i.MX_TIM7_Init)
    i.MX_UART4_Init                          0x08005788   Section        0  usart.o(i.MX_UART4_Init)
    i.MX_UART5_Init                          0x080057c0   Section        0  usart.o(i.MX_UART5_Init)
    i.MX_USART1_UART_Init                    0x080057f8   Section        0  usart.o(i.MX_USART1_UART_Init)
    i.MX_USART2_UART_Init                    0x08005864   Section        0  usart.o(i.MX_USART2_UART_Init)
    i.MX_USART3_UART_Init                    0x0800589c   Section        0  usart.o(i.MX_USART3_UART_Init)
    i.MakeCrcFlow                            0x080058fc   Section        0  usart.o(i.MakeCrcFlow)
    i.MakeCrcModbus                          0x08005930   Section        0  usart.o(i.MakeCrcModbus)
    i.MemManage_Handler                      0x08005966   Section        0  stm32f2xx_it.o(i.MemManage_Handler)
    i.NMI_Handler                            0x08005968   Section        0  stm32f2xx_it.o(i.NMI_Handler)
    i.PendSV_Handler                         0x0800596a   Section        0  stm32f2xx_it.o(i.PendSV_Handler)
    i.RGBLedDealt                            0x0800596c   Section        0  gpio.o(i.RGBLedDealt)
    i.RTCSetDateAndTime                      0x080059f0   Section        0  rtc.o(i.RTCSetDateAndTime)
    i.RTCSetTime                             0x08005a18   Section        0  rtc.o(i.RTCSetTime)
    i.RTC_Bcd2ToByte                         0x08005a30   Section        0  stm32f2xx_hal_rtc.o(i.RTC_Bcd2ToByte)
    i.RTC_ByteToBcd2                         0x08005a42   Section        0  stm32f2xx_hal_rtc.o(i.RTC_ByteToBcd2)
    i.RTC_EnterInitMode                      0x08005a58   Section        0  stm32f2xx_hal_rtc.o(i.RTC_EnterInitMode)
    i.RTC_ExitInitMode                       0x08005aa0   Section        0  stm32f2xx_hal_rtc.o(i.RTC_ExitInitMode)
    i.RtcGetDateTime                         0x08005ac4   Section        0  rtc.o(i.RtcGetDateTime)
    i.RtcSetDate                             0x08005ae8   Section        0  rtc.o(i.RtcSetDate)
    i.SPI_EndRxTxTransaction                 0x08005b00   Section        0  stm32f2xx_hal_spi.o(i.SPI_EndRxTxTransaction)
    SPI_EndRxTxTransaction                   0x08005b01   Thumb Code    32  stm32f2xx_hal_spi.o(i.SPI_EndRxTxTransaction)
    i.SPI_WaitFlagStateUntilTimeout          0x08005b20   Section        0  stm32f2xx_hal_spi.o(i.SPI_WaitFlagStateUntilTimeout)
    SPI_WaitFlagStateUntilTimeout            0x08005b21   Thumb Code   180  stm32f2xx_hal_spi.o(i.SPI_WaitFlagStateUntilTimeout)
    i.SVC_Handler                            0x08005bd8   Section        0  stm32f2xx_it.o(i.SVC_Handler)
    i.SetCtrlVisable                         0x08005bda   Section        0  usart.o(i.SetCtrlVisable)
    i.SetRTCToHmi                            0x08005c28   Section        0  usart.o(i.SetRTCToHmi)
    i.SetScreenCurveRange                    0x08005ca4   Section        0  usart.o(i.SetScreenCurveRange)
    i.SpiFlashEraseSector                    0x08005d04   Section        0  spi.o(i.SpiFlashEraseSector)
    i.SpiFlashRead                           0x08005d44   Section        0  spi.o(i.SpiFlashRead)
    i.SpiFlashReadID                         0x08005d94   Section        0  spi.o(i.SpiFlashReadID)
    i.SpiFlashReadOffset                     0x08005e00   Section        0  spi.o(i.SpiFlashReadOffset)
    i.SpiFlashReadSR                         0x08005e30   Section        0  spi.o(i.SpiFlashReadSR)
    i.SpiFlashSendAddr                       0x08005e78   Section        0  spi.o(i.SpiFlashSendAddr)
    SpiFlashSendAddr                         0x08005e79   Thumb Code    30  spi.o(i.SpiFlashSendAddr)
    i.SpiFlashSetOffset                      0x08005e98   Section        0  spi.o(i.SpiFlashSetOffset)
    i.SpiFlashWaitBusy                       0x08005ed0   Section        0  spi.o(i.SpiFlashWaitBusy)
    SpiFlashWaitBusy                         0x08005ed1   Thumb Code    14  spi.o(i.SpiFlashWaitBusy)
    i.SpiFlashWrite                          0x08005ee0   Section        0  spi.o(i.SpiFlashWrite)
    i.SpiFlashWriteEnable                    0x08005f3c   Section        0  spi.o(i.SpiFlashWriteEnable)
    i.SpiReadWriteByte                       0x08005f68   Section        0  spi.o(i.SpiReadWriteByte)
    i.SysTick_Handler                        0x08005f88   Section        0  stm32f2xx_it.o(i.SysTick_Handler)
    i.SystemClock_Config                     0x08006018   Section        0  main.o(i.SystemClock_Config)
    i.SystemInit                             0x0800609e   Section        0  system_stm32f2xx.o(i.SystemInit)
    i.TIM6_DAC_IRQHandler                    0x080060a0   Section        0  stm32f2xx_it.o(i.TIM6_DAC_IRQHandler)
    i.TIM_Base_SetConfig                     0x080060ac   Section        0  stm32f2xx_hal_tim.o(i.TIM_Base_SetConfig)
    i.TIM_CCxChannelCmd                      0x08006174   Section        0  stm32f2xx_hal_tim.o(i.TIM_CCxChannelCmd)
    i.TIM_OC1_SetConfig                      0x08006190   Section        0  stm32f2xx_hal_tim.o(i.TIM_OC1_SetConfig)
    TIM_OC1_SetConfig                        0x08006191   Thumb Code    88  stm32f2xx_hal_tim.o(i.TIM_OC1_SetConfig)
    i.TIM_OC2_SetConfig                      0x080061f0   Section        0  stm32f2xx_hal_tim.o(i.TIM_OC2_SetConfig)
    i.TIM_OC3_SetConfig                      0x0800625c   Section        0  stm32f2xx_hal_tim.o(i.TIM_OC3_SetConfig)
    TIM_OC3_SetConfig                        0x0800625d   Thumb Code    96  stm32f2xx_hal_tim.o(i.TIM_OC3_SetConfig)
    i.TIM_OC4_SetConfig                      0x080062c4   Section        0  stm32f2xx_hal_tim.o(i.TIM_OC4_SetConfig)
    TIM_OC4_SetConfig                        0x080062c5   Thumb Code    70  stm32f2xx_hal_tim.o(i.TIM_OC4_SetConfig)
    i.UART4_IRQHandler                       0x08006314   Section        0  stm32f2xx_it.o(i.UART4_IRQHandler)
    i.UART5_IRQHandler                       0x08006320   Section        0  stm32f2xx_it.o(i.UART5_IRQHandler)
    i.UART_DMAAbortOnError                   0x0800632c   Section        0  stm32f2xx_hal_uart.o(i.UART_DMAAbortOnError)
    UART_DMAAbortOnError                     0x0800632d   Thumb Code    16  stm32f2xx_hal_uart.o(i.UART_DMAAbortOnError)
    i.UART_DMAError                          0x0800633c   Section        0  stm32f2xx_hal_uart.o(i.UART_DMAError)
    UART_DMAError                            0x0800633d   Thumb Code    74  stm32f2xx_hal_uart.o(i.UART_DMAError)
    i.UART_DMAReceiveCplt                    0x08006386   Section        0  stm32f2xx_hal_uart.o(i.UART_DMAReceiveCplt)
    UART_DMAReceiveCplt                      0x08006387   Thumb Code   134  stm32f2xx_hal_uart.o(i.UART_DMAReceiveCplt)
    i.UART_DMARxHalfCplt                     0x0800640c   Section        0  stm32f2xx_hal_uart.o(i.UART_DMARxHalfCplt)
    UART_DMARxHalfCplt                       0x0800640d   Thumb Code    30  stm32f2xx_hal_uart.o(i.UART_DMARxHalfCplt)
    i.UART_DMATransmitCplt                   0x0800642a   Section        0  stm32f2xx_hal_uart.o(i.UART_DMATransmitCplt)
    UART_DMATransmitCplt                     0x0800642b   Thumb Code    66  stm32f2xx_hal_uart.o(i.UART_DMATransmitCplt)
    i.UART_DMATxHalfCplt                     0x0800646c   Section        0  stm32f2xx_hal_uart.o(i.UART_DMATxHalfCplt)
    UART_DMATxHalfCplt                       0x0800646d   Thumb Code    10  stm32f2xx_hal_uart.o(i.UART_DMATxHalfCplt)
    i.UART_EndRxTransfer                     0x08006476   Section        0  stm32f2xx_hal_uart.o(i.UART_EndRxTransfer)
    UART_EndRxTransfer                       0x08006477   Thumb Code    78  stm32f2xx_hal_uart.o(i.UART_EndRxTransfer)
    i.UART_EndTxTransfer                     0x080064c4   Section        0  stm32f2xx_hal_uart.o(i.UART_EndTxTransfer)
    UART_EndTxTransfer                       0x080064c5   Thumb Code    28  stm32f2xx_hal_uart.o(i.UART_EndTxTransfer)
    i.UART_Receive_IT                        0x080064e0   Section        0  stm32f2xx_hal_uart.o(i.UART_Receive_IT)
    UART_Receive_IT                          0x080064e1   Thumb Code   194  stm32f2xx_hal_uart.o(i.UART_Receive_IT)
    i.UART_SetConfig                         0x080065a4   Section        0  stm32f2xx_hal_uart.o(i.UART_SetConfig)
    UART_SetConfig                           0x080065a5   Thumb Code   284  stm32f2xx_hal_uart.o(i.UART_SetConfig)
    i.UART_Start_Receive_DMA                 0x080066c8   Section        0  stm32f2xx_hal_uart.o(i.UART_Start_Receive_DMA)
    i.UART_Start_Receive_IT                  0x08006758   Section        0  stm32f2xx_hal_uart.o(i.UART_Start_Receive_IT)
    i.USART1_IRQHandler                      0x08006790   Section        0  stm32f2xx_it.o(i.USART1_IRQHandler)
    i.USART2_IRQHandler                      0x0800679c   Section        0  stm32f2xx_it.o(i.USART2_IRQHandler)
    i.USART3_IRQHandler                      0x080067a8   Section        0  stm32f2xx_it.o(i.USART3_IRQHandler)
    i.UsageFault_Handler                     0x080067b4   Section        0  stm32f2xx_it.o(i.UsageFault_Handler)
    i.UsartSendData                          0x080067b8   Section        0  usart.o(i.UsartSendData)
    i.UsartSetTxBuf                          0x08006860   Section        0  usart.o(i.UsartSetTxBuf)
    i.__ARM_fpclassify                       0x080068e4   Section        0  fpclassify.o(i.__ARM_fpclassify)
    i.__NVIC_SetPriority                     0x0800690c   Section        0  stm32f2xx_hal_cortex.o(i.__NVIC_SetPriority)
    __NVIC_SetPriority                       0x0800690d   Thumb Code    32  stm32f2xx_hal_cortex.o(i.__NVIC_SetPriority)
    i._is_digit                              0x0800692c   Section        0  __printf_wp.o(i._is_digit)
    i.main                                   0x0800693c   Section        0  main.o(i.main)
    locale$$code                             0x08006df4   Section       44  lc_numeric_c.o(locale$$code)
    x$fpl$d2f                                0x08006e20   Section       98  d2f.o(x$fpl$d2f)
    x$fpl$dadd                               0x08006e84   Section      336  daddsub_clz.o(x$fpl$dadd)
    _dadd1                                   0x08006e95   Thumb Code     0  daddsub_clz.o(x$fpl$dadd)
    x$fpl$dcheck1                            0x08006fd4   Section       16  dcheck1.o(x$fpl$dcheck1)
    x$fpl$ddiv                               0x08006fe4   Section      688  ddiv.o(x$fpl$ddiv)
    ddiv_entry                               0x08006feb   Thumb Code     0  ddiv.o(x$fpl$ddiv)
    x$fpl$dfix                               0x08007294   Section       94  dfix.o(x$fpl$dfix)
    x$fpl$dfixu                              0x080072f4   Section       90  dfixu.o(x$fpl$dfixu)
    x$fpl$dflt                               0x0800734e   Section       46  dflt_clz.o(x$fpl$dflt)
    x$fpl$dfltu                              0x0800737c   Section       38  dflt_clz.o(x$fpl$dfltu)
    x$fpl$dmul                               0x080073a4   Section      340  dmul.o(x$fpl$dmul)
    x$fpl$dnaninf                            0x080074f8   Section      156  dnaninf.o(x$fpl$dnaninf)
    x$fpl$dretinf                            0x08007594   Section       12  dretinf.o(x$fpl$dretinf)
    x$fpl$drsb                               0x080075a0   Section       22  daddsub_clz.o(x$fpl$drsb)
    x$fpl$dsub                               0x080075b8   Section      468  daddsub_clz.o(x$fpl$dsub)
    _dsub1                                   0x080075c9   Thumb Code     0  daddsub_clz.o(x$fpl$dsub)
    x$fpl$f2d                                0x0800778c   Section       86  f2d.o(x$fpl$f2d)
    x$fpl$fadd                               0x080077e4   Section      196  faddsub_clz.o(x$fpl$fadd)
    _fadd1                                   0x080077f3   Thumb Code     0  faddsub_clz.o(x$fpl$fadd)
    x$fpl$fdiv                               0x080078a8   Section      388  fdiv.o(x$fpl$fdiv)
    _fdiv1                                   0x080078a9   Thumb Code     0  fdiv.o(x$fpl$fdiv)
    x$fpl$ffix                               0x08007a2c   Section       54  ffix.o(x$fpl$ffix)
    x$fpl$ffltu                              0x08007a64   Section       38  fflt_clz.o(x$fpl$ffltu)
    x$fpl$fmul                               0x08007a8c   Section      258  fmul.o(x$fpl$fmul)
    x$fpl$fnaninf                            0x08007b8e   Section      140  fnaninf.o(x$fpl$fnaninf)
    x$fpl$fretinf                            0x08007c1a   Section       10  fretinf.o(x$fpl$fretinf)
    x$fpl$fsub                               0x08007c24   Section      234  faddsub_clz.o(x$fpl$fsub)
    _fsub1                                   0x08007c33   Thumb Code     0  faddsub_clz.o(x$fpl$fsub)
    x$fpl$printf1                            0x08007d0e   Section        4  printf1.o(x$fpl$printf1)
    x$fpl$retnan                             0x08007d12   Section      100  retnan.o(x$fpl$retnan)
    x$fpl$scalbn                             0x08007d76   Section       92  scalbn.o(x$fpl$scalbn)
    x$fpl$trapveneer                         0x08007dd2   Section       48  trapv.o(x$fpl$trapveneer)
    x$fpl$usenofp                            0x08007e02   Section        0  usenofp.o(x$fpl$usenofp)
    .constdata                               0x08007e04   Section       24  adc.o(.constdata)
    sysAdcChannel                            0x08007e04   Data          24  adc.o(.constdata)
    .constdata                               0x08007e1c   Section        8  stm32f2xx_hal_dma.o(.constdata)
    flagBitshiftOffset                       0x08007e1c   Data           8  stm32f2xx_hal_dma.o(.constdata)
    .constdata                               0x08007e24   Section       16  system_stm32f2xx.o(.constdata)
    .constdata                               0x08007e34   Section        8  system_stm32f2xx.o(.constdata)
    .constdata                               0x08007e3c   Section       40  _printf_hex_int.o(.constdata)
    uc_hextab                                0x08007e3c   Data          20  _printf_hex_int.o(.constdata)
    lc_hextab                                0x08007e50   Data          20  _printf_hex_int.o(.constdata)
    .constdata                               0x08007e64   Section       17  __printf_flags_wp.o(.constdata)
    maptable                                 0x08007e64   Data          17  __printf_flags_wp.o(.constdata)
    .constdata                               0x08007e78   Section      148  bigflt0.o(.constdata)
    tenpwrs_x                                0x08007e78   Data          60  bigflt0.o(.constdata)
    tenpwrs_i                                0x08007eb4   Data          64  bigflt0.o(.constdata)
    locale$$data                             0x08007f2c   Section       28  lc_numeric_c.o(locale$$data)
    __lcnum_c_name                           0x08007f30   Data           2  lc_numeric_c.o(locale$$data)
    __lcnum_c_start                          0x08007f38   Data           0  lc_numeric_c.o(locale$$data)
    __lcnum_c_point                          0x08007f44   Data           0  lc_numeric_c.o(locale$$data)
    __lcnum_c_thousands                      0x08007f46   Data           0  lc_numeric_c.o(locale$$data)
    __lcnum_c_grouping                       0x08007f47   Data           0  lc_numeric_c.o(locale$$data)
    __lcnum_c_end                            0x08007f48   Data           0  lc_numeric_c.o(locale$$data)
    .data                                    0x20000000   Section        8  gpio.o(.data)
    em1Pre                                   0x20000003   Data           1  gpio.o(.data)
    em1Re                                    0x20000004   Data           1  gpio.o(.data)
    em0Pre                                   0x20000005   Data           1  gpio.o(.data)
    em0Re                                    0x20000006   Data           1  gpio.o(.data)
    counter                                  0x20000007   Data           1  gpio.o(.data)
    .data                                    0x20000008   Section        4  adc.o(.data)
    nowChannel                               0x20000008   Data           1  adc.o(.data)
    counter                                  0x20000009   Data           1  adc.o(.data)
    reStartTime                              0x2000000a   Data           2  adc.o(.data)
    .data                                    0x2000000c   Section        8  spi.o(.data)
    .data                                    0x20000014   Section       58  usart.o(.data)
    completeFlagDebug                        0x20000014   Data           1  usart.o(.data)
    completeFlagHMI                          0x20000015   Data           1  usart.o(.data)
    completeFlagFlow                         0x20000016   Data           1  usart.o(.data)
    completeFlagBat                          0x20000017   Data           1  usart.o(.data)
    flowRxCom                                0x20000018   Data           1  usart.o(.data)
    batRxLen                                 0x20000019   Data           1  usart.o(.data)
    batRxCom                                 0x2000001a   Data           1  usart.o(.data)
    counter                                  0x2000001c   Data           1  usart.o(.data)
    counter                                  0x2000001d   Data           1  usart.o(.data)
    frameCount                               0x20000020   Data           4  usart.o(.data)
    dateSet                                  0x20000024   Data           4  usart.o(.data)
    tap                                      0x20000028   Data           4  usart.o(.data)
    handShake                                0x20000030   Data          10  usart.o(.data)
    ibpCmdBuf                                0x2000003a   Data          20  usart.o(.data)
    .data                                    0x2000004e   Section       10  stm32f2xx_it.o(.data)
    time                                     0x2000004e   Data           2  stm32f2xx_it.o(.data)
    .data                                    0x20000058   Section       12  stm32f2xx_hal.o(.data)
    .data                                    0x20000064   Section        4  system_stm32f2xx.o(.data)
    .bss                                     0x20000068   Section       16  main.o(.bss)
    .bss                                     0x20000078   Section     1056  adc.o(.bss)
    sum                                      0x20000078   Data          24  adc.o(.bss)
    adcValue                                 0x2000009c   Data         816  adc.o(.bss)
    valueAll                                 0x20000420   Data         120  adc.o(.bss)
    .bss                                     0x20000498   Section       32  rtc.o(.bss)
    .bss                                     0x200004b8   Section       88  spi.o(.bss)
    .bss                                     0x20000510   Section      216  tim.o(.bss)
    .bss                                     0x200005e8   Section     6972  usart.o(.bss)
    timSet                                   0x200005e8   Data          12  usart.o(.bss)
    txBufDebug                               0x200005f4   Data         100  usart.o(.bss)
    txBufHMI                                 0x20000658   Data         200  usart.o(.bss)
    txBufFlow                                0x20000720   Data          20  usart.o(.bss)
    txBufBat                                 0x20000734   Data          20  usart.o(.bss)
    ibpRxBuf                                 0x20001498   Data        1000  usart.o(.bss)
    .bss                                     0x20002124   Section       96  libspace.o(.bss)
    HEAP                                     0x20002188   Section      512  startup_stm32f205xx.o(HEAP)
    Heap_Mem                                 0x20002188   Data         512  startup_stm32f205xx.o(HEAP)
    STACK                                    0x20002388   Section     1024  startup_stm32f205xx.o(STACK)
    Stack_Mem                                0x20002388   Data        1024  startup_stm32f205xx.o(STACK)
    __initial_sp                             0x20002788   Data           0  startup_stm32f205xx.o(STACK)

    Global Symbols

    Symbol Name                              Value     Ov Type        Size  Object(Section)

    BuildAttributes$$THM_ISAv4$P$D$K$B$S$PE$A:L22UL41UL21$X:L11$S22US41US21$IEEE1$IW$USESV6$~STKCKD$USESV7$~SHL$OTIME$ROPI$IEEEJ$EBA8$UX$STANDARDLIB$REQ8$PRES8$EABIv2 0x00000000   Number         0  anon$$obj.o ABSOLUTE
    __ARM_use_no_argv                        0x00000000   Number         0  main.o ABSOLUTE
    _printf_flags                            0x00000000   Number         0  printf_stubs.o ABSOLUTE
    _printf_return_value                     0x00000000   Number         0  printf_stubs.o ABSOLUTE
    _printf_sizespec                         0x00000000   Number         0  printf_stubs.o ABSOLUTE
    _printf_widthprec                        0x00000000   Number         0  printf_stubs.o ABSOLUTE
    __ARM_exceptions_init                     - Undefined Weak Reference
    __alloca_initialize                       - Undefined Weak Reference
    __arm_fini_                               - Undefined Weak Reference
    __arm_preinit_                            - Undefined Weak Reference
    __cpp_initialize__aeabi_                  - Undefined Weak Reference
    __cxa_finalize                            - Undefined Weak Reference
    __sigvec_lookup                           - Undefined Weak Reference
    _atexit_init                              - Undefined Weak Reference
    _call_atexit_fns                          - Undefined Weak Reference
    _clock_init                               - Undefined Weak Reference
    _fp_trap_init                             - Undefined Weak Reference
    _fp_trap_shutdown                         - Undefined Weak Reference
    _get_lc_collate                           - Undefined Weak Reference
    _get_lc_ctype                             - Undefined Weak Reference
    _get_lc_monetary                          - Undefined Weak Reference
    _get_lc_time                              - Undefined Weak Reference
    _getenv_init                              - Undefined Weak Reference
    _handle_redirection                       - Undefined Weak Reference
    _init_alloc                               - Undefined Weak Reference
    _init_user_alloc                          - Undefined Weak Reference
    _initio                                   - Undefined Weak Reference
    _printf_mbtowc                            - Undefined Weak Reference
    _printf_truncate_signed                   - Undefined Weak Reference
    _printf_truncate_unsigned                 - Undefined Weak Reference
    _rand_init                                - Undefined Weak Reference
    _signal_finish                            - Undefined Weak Reference
    _signal_init                              - Undefined Weak Reference
    _terminate_alloc                          - Undefined Weak Reference
    _terminate_user_alloc                     - Undefined Weak Reference
    _terminateio                              - Undefined Weak Reference
    __Vectors_Size                           0x00000184   Number         0  startup_stm32f205xx.o ABSOLUTE
    __Vectors                                0x08000000   Data           4  startup_stm32f205xx.o(RESET)
    __Vectors_End                            0x08000184   Data           0  startup_stm32f205xx.o(RESET)
    __main                                   0x08000185   Thumb Code     8  __main.o(!!!main)
    __scatterload                            0x0800018d   Thumb Code     0  __scatter.o(!!!scatter)
    __scatterload_rt2                        0x0800018d   Thumb Code    44  __scatter.o(!!!scatter)
    __scatterload_rt2_thumb_only             0x0800018d   Thumb Code     0  __scatter.o(!!!scatter)
    __scatterload_null                       0x0800019b   Thumb Code     0  __scatter.o(!!!scatter)
    __scatterload_copy                       0x080001c1   Thumb Code    26  __scatter_copy.o(!!handler_copy)
    __scatterload_zeroinit                   0x080001dd   Thumb Code    28  __scatter_zi.o(!!handler_zi)
    _printf_f                                0x080001f9   Thumb Code     0  _printf_f.o(.ARM.Collect$$_printf_percent$$00000003)
    _printf_percent                          0x080001f9   Thumb Code     0  _printf_percent.o(.ARM.Collect$$_printf_percent$$00000000)
    _printf_d                                0x080001ff   Thumb Code     0  _printf_d.o(.ARM.Collect$$_printf_percent$$00000009)
    _printf_x                                0x08000205   Thumb Code     0  _printf_x.o(.ARM.Collect$$_printf_percent$$0000000C)
    _printf_s                                0x0800020b   Thumb Code     0  _printf_s.o(.ARM.Collect$$_printf_percent$$00000014)
    _printf_percent_end                      0x08000211   Thumb Code     0  _printf_percent_end.o(.ARM.Collect$$_printf_percent$$00000017)
    __rt_lib_init                            0x08000215   Thumb Code     0  libinit.o(.ARM.Collect$$libinit$$00000000)
    __rt_lib_init_fp_1                       0x08000217   Thumb Code     0  libinit2.o(.ARM.Collect$$libinit$$00000002)
    __rt_lib_init_heap_1                     0x08000217   Thumb Code     0  libinit2.o(.ARM.Collect$$libinit$$0000000A)
    __rt_lib_init_lc_common                  0x08000217   Thumb Code     0  libinit2.o(.ARM.Collect$$libinit$$0000000F)
    __rt_lib_init_preinit_1                  0x08000217   Thumb Code     0  libinit2.o(.ARM.Collect$$libinit$$00000004)
    __rt_lib_init_rand_1                     0x08000217   Thumb Code     0  libinit2.o(.ARM.Collect$$libinit$$0000000E)
    __rt_lib_init_user_alloc_1               0x08000217   Thumb Code     0  libinit2.o(.ARM.Collect$$libinit$$0000000C)
    __rt_lib_init_lc_collate_1               0x0800021d   Thumb Code     0  libinit2.o(.ARM.Collect$$libinit$$00000011)
    __rt_lib_init_lc_ctype_1                 0x0800021d   Thumb Code     0  libinit2.o(.ARM.Collect$$libinit$$00000013)
    __rt_lib_init_lc_monetary_1              0x0800021d   Thumb Code     0  libinit2.o(.ARM.Collect$$libinit$$00000015)
    __rt_lib_init_lc_numeric_2               0x0800021d   Thumb Code     0  libinit2.o(.ARM.Collect$$libinit$$00000016)
    __rt_lib_init_alloca_1                   0x08000227   Thumb Code     0  libinit2.o(.ARM.Collect$$libinit$$0000002E)
    __rt_lib_init_argv_1                     0x08000227   Thumb Code     0  libinit2.o(.ARM.Collect$$libinit$$0000002C)
    __rt_lib_init_atexit_1                   0x08000227   Thumb Code     0  libinit2.o(.ARM.Collect$$libinit$$0000001B)
    __rt_lib_init_clock_1                    0x08000227   Thumb Code     0  libinit2.o(.ARM.Collect$$libinit$$00000021)
    __rt_lib_init_cpp_1                      0x08000227   Thumb Code     0  libinit2.o(.ARM.Collect$$libinit$$00000032)
    __rt_lib_init_exceptions_1               0x08000227   Thumb Code     0  libinit2.o(.ARM.Collect$$libinit$$00000030)
    __rt_lib_init_fp_trap_1                  0x08000227   Thumb Code     0  libinit2.o(.ARM.Collect$$libinit$$0000001F)
    __rt_lib_init_getenv_1                   0x08000227   Thumb Code     0  libinit2.o(.ARM.Collect$$libinit$$00000023)
    __rt_lib_init_lc_numeric_1               0x08000227   Thumb Code     0  libinit2.o(.ARM.Collect$$libinit$$00000017)
    __rt_lib_init_lc_time_1                  0x08000227   Thumb Code     0  libinit2.o(.ARM.Collect$$libinit$$00000019)
    __rt_lib_init_return                     0x08000227   Thumb Code     0  libinit2.o(.ARM.Collect$$libinit$$00000033)
    __rt_lib_init_signal_1                   0x08000227   Thumb Code     0  libinit2.o(.ARM.Collect$$libinit$$0000001D)
    __rt_lib_init_stdio_1                    0x08000227   Thumb Code     0  libinit2.o(.ARM.Collect$$libinit$$00000025)
    __rt_lib_shutdown                        0x08000229   Thumb Code     0  libshutdown.o(.ARM.Collect$$libshutdown$$00000000)
    __rt_lib_shutdown_cpp_1                  0x0800022b   Thumb Code     0  libshutdown2.o(.ARM.Collect$$libshutdown$$00000004)
    __rt_lib_shutdown_fini_1                 0x0800022b   Thumb Code     0  libshutdown2.o(.ARM.Collect$$libshutdown$$00000002)
    __rt_lib_shutdown_fp_trap_1              0x0800022b   Thumb Code     0  libshutdown2.o(.ARM.Collect$$libshutdown$$00000009)
    __rt_lib_shutdown_heap_1                 0x0800022b   Thumb Code     0  libshutdown2.o(.ARM.Collect$$libshutdown$$00000011)
    __rt_lib_shutdown_return                 0x0800022b   Thumb Code     0  libshutdown2.o(.ARM.Collect$$libshutdown$$00000012)
    __rt_lib_shutdown_signal_1               0x0800022b   Thumb Code     0  libshutdown2.o(.ARM.Collect$$libshutdown$$0000000C)
    __rt_lib_shutdown_stdio_1                0x0800022b   Thumb Code     0  libshutdown2.o(.ARM.Collect$$libshutdown$$00000006)
    __rt_lib_shutdown_user_alloc_1           0x0800022b   Thumb Code     0  libshutdown2.o(.ARM.Collect$$libshutdown$$0000000E)
    __rt_entry                               0x0800022d   Thumb Code     0  __rtentry.o(.ARM.Collect$$rtentry$$00000000)
    __rt_entry_presh_1                       0x0800022d   Thumb Code     0  __rtentry2.o(.ARM.Collect$$rtentry$$00000002)
    __rt_entry_sh                            0x0800022d   Thumb Code     0  __rtentry4.o(.ARM.Collect$$rtentry$$00000004)
    __rt_entry_li                            0x08000233   Thumb Code     0  __rtentry2.o(.ARM.Collect$$rtentry$$0000000A)
    __rt_entry_postsh_1                      0x08000233   Thumb Code     0  __rtentry2.o(.ARM.Collect$$rtentry$$00000009)
    __rt_entry_main                          0x08000237   Thumb Code     0  __rtentry2.o(.ARM.Collect$$rtentry$$0000000D)
    __rt_entry_postli_1                      0x08000237   Thumb Code     0  __rtentry2.o(.ARM.Collect$$rtentry$$0000000C)
    __rt_exit                                0x0800023f   Thumb Code     0  rtexit.o(.ARM.Collect$$rtexit$$00000000)
    __rt_exit_ls                             0x08000241   Thumb Code     0  rtexit2.o(.ARM.Collect$$rtexit$$00000003)
    __rt_exit_prels_1                        0x08000241   Thumb Code     0  rtexit2.o(.ARM.Collect$$rtexit$$00000002)
    __rt_exit_exit                           0x08000245   Thumb Code     0  rtexit2.o(.ARM.Collect$$rtexit$$00000004)
    Reset_Handler                            0x0800024d   Thumb Code     8  startup_stm32f205xx.o(.text)
    ADC_IRQHandler                           0x08000267   Thumb Code     0  startup_stm32f205xx.o(.text)
    CAN1_RX0_IRQHandler                      0x08000267   Thumb Code     0  startup_stm32f205xx.o(.text)
    CAN1_RX1_IRQHandler                      0x08000267   Thumb Code     0  startup_stm32f205xx.o(.text)
    CAN1_SCE_IRQHandler                      0x08000267   Thumb Code     0  startup_stm32f205xx.o(.text)
    CAN1_TX_IRQHandler                       0x08000267   Thumb Code     0  startup_stm32f205xx.o(.text)
    CAN2_RX0_IRQHandler                      0x08000267   Thumb Code     0  startup_stm32f205xx.o(.text)
    CAN2_RX1_IRQHandler                      0x08000267   Thumb Code     0  startup_stm32f205xx.o(.text)
    CAN2_SCE_IRQHandler                      0x08000267   Thumb Code     0  startup_stm32f205xx.o(.text)
    CAN2_TX_IRQHandler                       0x08000267   Thumb Code     0  startup_stm32f205xx.o(.text)
    DMA1_Stream0_IRQHandler                  0x08000267   Thumb Code     0  startup_stm32f205xx.o(.text)
    DMA1_Stream1_IRQHandler                  0x08000267   Thumb Code     0  startup_stm32f205xx.o(.text)
    DMA1_Stream2_IRQHandler                  0x08000267   Thumb Code     0  startup_stm32f205xx.o(.text)
    DMA1_Stream3_IRQHandler                  0x08000267   Thumb Code     0  startup_stm32f205xx.o(.text)
    DMA1_Stream4_IRQHandler                  0x08000267   Thumb Code     0  startup_stm32f205xx.o(.text)
    DMA1_Stream5_IRQHandler                  0x08000267   Thumb Code     0  startup_stm32f205xx.o(.text)
    DMA1_Stream6_IRQHandler                  0x08000267   Thumb Code     0  startup_stm32f205xx.o(.text)
    DMA1_Stream7_IRQHandler                  0x08000267   Thumb Code     0  startup_stm32f205xx.o(.text)
    DMA2_Stream0_IRQHandler                  0x08000267   Thumb Code     0  startup_stm32f205xx.o(.text)
    DMA2_Stream1_IRQHandler                  0x08000267   Thumb Code     0  startup_stm32f205xx.o(.text)
    DMA2_Stream3_IRQHandler                  0x08000267   Thumb Code     0  startup_stm32f205xx.o(.text)
    DMA2_Stream4_IRQHandler                  0x08000267   Thumb Code     0  startup_stm32f205xx.o(.text)
    DMA2_Stream5_IRQHandler                  0x08000267   Thumb Code     0  startup_stm32f205xx.o(.text)
    DMA2_Stream6_IRQHandler                  0x08000267   Thumb Code     0  startup_stm32f205xx.o(.text)
    EXTI0_IRQHandler                         0x08000267   Thumb Code     0  startup_stm32f205xx.o(.text)
    EXTI15_10_IRQHandler                     0x08000267   Thumb Code     0  startup_stm32f205xx.o(.text)
    EXTI1_IRQHandler                         0x08000267   Thumb Code     0  startup_stm32f205xx.o(.text)
    EXTI2_IRQHandler                         0x08000267   Thumb Code     0  startup_stm32f205xx.o(.text)
    EXTI3_IRQHandler                         0x08000267   Thumb Code     0  startup_stm32f205xx.o(.text)
    EXTI4_IRQHandler                         0x08000267   Thumb Code     0  startup_stm32f205xx.o(.text)
    EXTI9_5_IRQHandler                       0x08000267   Thumb Code     0  startup_stm32f205xx.o(.text)
    FLASH_IRQHandler                         0x08000267   Thumb Code     0  startup_stm32f205xx.o(.text)
    FSMC_IRQHandler                          0x08000267   Thumb Code     0  startup_stm32f205xx.o(.text)
    HASH_RNG_IRQHandler                      0x08000267   Thumb Code     0  startup_stm32f205xx.o(.text)
    I2C1_ER_IRQHandler                       0x08000267   Thumb Code     0  startup_stm32f205xx.o(.text)
    I2C1_EV_IRQHandler                       0x08000267   Thumb Code     0  startup_stm32f205xx.o(.text)
    I2C2_ER_IRQHandler                       0x08000267   Thumb Code     0  startup_stm32f205xx.o(.text)
    I2C2_EV_IRQHandler                       0x08000267   Thumb Code     0  startup_stm32f205xx.o(.text)
    I2C3_ER_IRQHandler                       0x08000267   Thumb Code     0  startup_stm32f205xx.o(.text)
    I2C3_EV_IRQHandler                       0x08000267   Thumb Code     0  startup_stm32f205xx.o(.text)
    OTG_FS_IRQHandler                        0x08000267   Thumb Code     0  startup_stm32f205xx.o(.text)
    OTG_FS_WKUP_IRQHandler                   0x08000267   Thumb Code     0  startup_stm32f205xx.o(.text)
    OTG_HS_EP1_IN_IRQHandler                 0x08000267   Thumb Code     0  startup_stm32f205xx.o(.text)
    OTG_HS_EP1_OUT_IRQHandler                0x08000267   Thumb Code     0  startup_stm32f205xx.o(.text)
    OTG_HS_IRQHandler                        0x08000267   Thumb Code     0  startup_stm32f205xx.o(.text)
    OTG_HS_WKUP_IRQHandler                   0x08000267   Thumb Code     0  startup_stm32f205xx.o(.text)
    PVD_IRQHandler                           0x08000267   Thumb Code     0  startup_stm32f205xx.o(.text)
    RCC_IRQHandler                           0x08000267   Thumb Code     0  startup_stm32f205xx.o(.text)
    RTC_Alarm_IRQHandler                     0x08000267   Thumb Code     0  startup_stm32f205xx.o(.text)
    RTC_WKUP_IRQHandler                      0x08000267   Thumb Code     0  startup_stm32f205xx.o(.text)
    SDIO_IRQHandler                          0x08000267   Thumb Code     0  startup_stm32f205xx.o(.text)
    SPI1_IRQHandler                          0x08000267   Thumb Code     0  startup_stm32f205xx.o(.text)
    SPI2_IRQHandler                          0x08000267   Thumb Code     0  startup_stm32f205xx.o(.text)
    SPI3_IRQHandler                          0x08000267   Thumb Code     0  startup_stm32f205xx.o(.text)
    TAMP_STAMP_IRQHandler                    0x08000267   Thumb Code     0  startup_stm32f205xx.o(.text)
    TIM1_BRK_TIM9_IRQHandler                 0x08000267   Thumb Code     0  startup_stm32f205xx.o(.text)
    TIM1_CC_IRQHandler                       0x08000267   Thumb Code     0  startup_stm32f205xx.o(.text)
    TIM1_TRG_COM_TIM11_IRQHandler            0x08000267   Thumb Code     0  startup_stm32f205xx.o(.text)
    TIM1_UP_TIM10_IRQHandler                 0x08000267   Thumb Code     0  startup_stm32f205xx.o(.text)
    TIM2_IRQHandler                          0x08000267   Thumb Code     0  startup_stm32f205xx.o(.text)
    TIM3_IRQHandler                          0x08000267   Thumb Code     0  startup_stm32f205xx.o(.text)
    TIM4_IRQHandler                          0x08000267   Thumb Code     0  startup_stm32f205xx.o(.text)
    TIM5_IRQHandler                          0x08000267   Thumb Code     0  startup_stm32f205xx.o(.text)
    TIM7_IRQHandler                          0x08000267   Thumb Code     0  startup_stm32f205xx.o(.text)
    TIM8_BRK_TIM12_IRQHandler                0x08000267   Thumb Code     0  startup_stm32f205xx.o(.text)
    TIM8_CC_IRQHandler                       0x08000267   Thumb Code     0  startup_stm32f205xx.o(.text)
    TIM8_TRG_COM_TIM14_IRQHandler            0x08000267   Thumb Code     0  startup_stm32f205xx.o(.text)
    TIM8_UP_TIM13_IRQHandler                 0x08000267   Thumb Code     0  startup_stm32f205xx.o(.text)
    USART6_IRQHandler                        0x08000267   Thumb Code     0  startup_stm32f205xx.o(.text)
    WWDG_IRQHandler                          0x08000267   Thumb Code     0  startup_stm32f205xx.o(.text)
    __user_initial_stackheap                 0x08000269   Thumb Code     0  startup_stm32f205xx.o(.text)
    __aeabi_uldivmod                         0x0800028d   Thumb Code     0  lludivv7m.o(.text)
    _ll_udiv                                 0x0800028d   Thumb Code   238  lludivv7m.o(.text)
    __2sprintf                               0x0800037d   Thumb Code    34  noretval__2sprintf.o(.text)
    _printf_pre_padding                      0x080003a5   Thumb Code    44  _printf_pad.o(.text)
    _printf_post_padding                     0x080003d1   Thumb Code    34  _printf_pad.o(.text)
    _printf_str                              0x080003f3   Thumb Code    82  _printf_str.o(.text)
    _printf_int_dec                          0x08000445   Thumb Code   104  _printf_dec.o(.text)
    _printf_int_hex                          0x080004bd   Thumb Code    84  _printf_hex_int.o(.text)
    _printf_longlong_hex                     0x080004bd   Thumb Code     0  _printf_hex_int.o(.text)
    __printf                                 0x08000515   Thumb Code   308  __printf_flags_wp.o(.text)
    strlen                                   0x0800064d   Thumb Code    62  strlen.o(.text)
    __aeabi_memclr4                          0x0800068b   Thumb Code     0  rt_memclr_w.o(.text)
    __aeabi_memclr8                          0x0800068b   Thumb Code     0  rt_memclr_w.o(.text)
    __rt_memclr_w                            0x0800068b   Thumb Code    78  rt_memclr_w.o(.text)
    _memset_w                                0x0800068f   Thumb Code     0  rt_memclr_w.o(.text)
    __use_two_region_memory                  0x080006d9   Thumb Code     2  heapauxi.o(.text)
    __rt_heap_escrow$2region                 0x080006db   Thumb Code     2  heapauxi.o(.text)
    __rt_heap_expand$2region                 0x080006dd   Thumb Code     2  heapauxi.o(.text)
    _printf_int_common                       0x080006df   Thumb Code   178  _printf_intcommon.o(.text)
    __lib_sel_fp_printf                      0x08000791   Thumb Code     2  _printf_fp_dec.o(.text)
    _printf_fp_dec_real                      0x08000943   Thumb Code   620  _printf_fp_dec.o(.text)
    _printf_char_common                      0x08000bbb   Thumb Code    32  _printf_char_common.o(.text)
    _sputc                                   0x08000be1   Thumb Code    10  _sputc.o(.text)
    _printf_cs_common                        0x08000beb   Thumb Code    20  _printf_char.o(.text)
    _printf_char                             0x08000bff   Thumb Code    16  _printf_char.o(.text)
    _printf_string                           0x08000c0f   Thumb Code     8  _printf_char.o(.text)
    __rt_locale                              0x08000c19   Thumb Code     8  rt_locale_intlibspace.o(.text)
    _ll_udiv10                               0x08000c21   Thumb Code   138  lludiv10.o(.text)
    _printf_fp_infnan                        0x08000cad   Thumb Code   112  _printf_fp_infnan.o(.text)
    _btod_etento                             0x08000d2d   Thumb Code   224  bigflt0.o(.text)
    __user_libspace                          0x08000e11   Thumb Code     8  libspace.o(.text)
    __user_perproc_libspace                  0x08000e11   Thumb Code     0  libspace.o(.text)
    __user_perthread_libspace                0x08000e11   Thumb Code     0  libspace.o(.text)
    __user_setup_stackheap                   0x08000e19   Thumb Code    74  sys_stackheap_outer.o(.text)
    exit                                     0x08000e63   Thumb Code    18  exit.o(.text)
    strcmp                                   0x08000e75   Thumb Code   128  strcmpv7m.o(.text)
    _sys_exit                                0x08000ef5   Thumb Code     8  sys_exit.o(.text)
    __I$use$semihosting                      0x08000f01   Thumb Code     0  use_no_semi.o(.text)
    __use_no_semihosting_swi                 0x08000f01   Thumb Code     2  use_no_semi.o(.text)
    __semihosting_library_function           0x08000f03   Thumb Code     0  indicate_semi.o(.text)
    _btod_d2e                                0x08000f03   Thumb Code    62  btod.o(CL$$btod_d2e)
    _d2e_denorm_low                          0x08000f41   Thumb Code    70  btod.o(CL$$btod_d2e_denorm_low)
    _d2e_norm_op1                            0x08000f87   Thumb Code    96  btod.o(CL$$btod_d2e_norm_op1)
    __btod_div_common                        0x08000fe7   Thumb Code   696  btod.o(CL$$btod_div_common)
    _e2e                                     0x0800131f   Thumb Code   220  btod.o(CL$$btod_e2e)
    _btod_ediv                               0x080013fb   Thumb Code    42  btod.o(CL$$btod_ediv)
    _btod_emul                               0x08001425   Thumb Code    42  btod.o(CL$$btod_emul)
    __btod_mult_common                       0x0800144f   Thumb Code   580  btod.o(CL$$btod_mult_common)
    ADCFilter                                0x08001695   Thumb Code   146  adc.o(i.ADCFilter)
    AdcConvert                               0x0800186d   Thumb Code   130  adc.o(i.AdcConvert)
    AdcFilterValue                           0x08001905   Thumb Code    48  adc.o(i.AdcFilterValue)
    AdcSetSpeed                              0x08001935   Thumb Code    90  usart.o(i.AdcSetSpeed)
    AddHistorySampleDateFloat                0x080019a9   Thumb Code    96  usart.o(i.AddHistorySampleDateFloat)
    AddHistorySampleDateFloatTwice           0x08001a09   Thumb Code   124  usart.o(i.AddHistorySampleDateFloatTwice)
    BIN2BCD                                  0x08001a85   Thumb Code    22  usart.o(i.BIN2BCD)
    BatteryDealt                             0x08001a9d   Thumb Code    60  usart.o(i.BatteryDealt)
    BatteryGetData                           0x08001ae1   Thumb Code    80  usart.o(i.BatteryGetData)
    BatteryUpDate                            0x08001b3d   Thumb Code   178  usart.o(i.BatteryUpDate)
    BubbleTimer                              0x08001bf9   Thumb Code   112  usart.o(i.BubbleTimer)
    BusFault_Handler                         0x08001c79   Thumb Code     2  stm32f2xx_it.o(i.BusFault_Handler)
    ChangeCurveRange                         0x08001c7b   Thumb Code   120  usart.o(i.ChangeCurveRange)
    ChangeIconFrame                          0x08001cf3   Thumb Code    80  usart.o(i.ChangeIconFrame)
    ChangePSWTxt                             0x08001d45   Thumb Code   110  usart.o(i.ChangePSWTxt)
    ChangeScreen                             0x08001dbd   Thumb Code    62  usart.o(i.ChangeScreen)
    ChangeSelectorIndex                      0x08001dfb   Thumb Code    76  usart.o(i.ChangeSelectorIndex)
    ChangeSetSpeed                           0x08001e49   Thumb Code    44  usart.o(i.ChangeSetSpeed)
    ChangeSetTemp                            0x08001e79   Thumb Code    56  usart.o(i.ChangeSetTemp)
    ChangeTxtValue                           0x08001ebd   Thumb Code   164  usart.o(i.ChangeTxtValue)
    ClearTxtContent                          0x08001f75   Thumb Code    72  usart.o(i.ClearTxtContent)
    DMA2_Stream2_IRQHandler                  0x08001fbd   Thumb Code     6  stm32f2xx_it.o(i.DMA2_Stream2_IRQHandler)
    DMA2_Stream7_IRQHandler                  0x08001fc9   Thumb Code     6  stm32f2xx_it.o(i.DMA2_Stream7_IRQHandler)
    DebugMon_Handler                         0x08002079   Thumb Code     2  stm32f2xx_it.o(i.DebugMon_Handler)
    Error_Handler                            0x0800207b   Thumb Code     4  main.o(i.Error_Handler)
    FLowGetData                              0x08002081   Thumb Code    20  usart.o(i.FLowGetData)
    FlowDealt                                0x08002099   Thumb Code   256  usart.o(i.FlowDealt)
    FlowGetMeasure                           0x080021f9   Thumb Code    92  usart.o(i.FlowGetMeasure)
    FlowSetBuble                             0x08002265   Thumb Code   120  usart.o(i.FlowSetBuble)
    GetRTCFromHMI                            0x080022e9   Thumb Code    46  usart.o(i.GetRTCFromHMI)
    GpioChk                                  0x08002319   Thumb Code   234  gpio.o(i.GpioChk)
    HAL_ADC_ConfigChannel                    0x0800241d   Thumb Code   322  stm32f2xx_hal_adc.o(i.HAL_ADC_ConfigChannel)
    HAL_ADC_GetValue                         0x0800256d   Thumb Code     6  stm32f2xx_hal_adc.o(i.HAL_ADC_GetValue)
    HAL_ADC_Init                             0x08002573   Thumb Code    84  stm32f2xx_hal_adc.o(i.HAL_ADC_Init)
    HAL_ADC_MspInit                          0x080025c9   Thumb Code   116  adc.o(i.HAL_ADC_MspInit)
    HAL_ADC_Start                            0x0800264d   Thumb Code   188  stm32f2xx_hal_adc.o(i.HAL_ADC_Start)
    HAL_ADC_Stop                             0x08002715   Thumb Code    60  stm32f2xx_hal_adc.o(i.HAL_ADC_Stop)
    HAL_DMA_Abort                            0x08002751   Thumb Code   146  stm32f2xx_hal_dma.o(i.HAL_DMA_Abort)
    HAL_DMA_Abort_IT                         0x080027e3   Thumb Code    36  stm32f2xx_hal_dma.o(i.HAL_DMA_Abort_IT)
    HAL_DMA_IRQHandler                       0x08002809   Thumb Code   412  stm32f2xx_hal_dma.o(i.HAL_DMA_IRQHandler)
    HAL_DMA_Init                             0x080029a9   Thumb Code   206  stm32f2xx_hal_dma.o(i.HAL_DMA_Init)
    HAL_DMA_Start_IT                         0x08002a7d   Thumb Code   110  stm32f2xx_hal_dma.o(i.HAL_DMA_Start_IT)
    HAL_Delay                                0x08002aed   Thumb Code    32  stm32f2xx_hal.o(i.HAL_Delay)
    HAL_GPIO_Init                            0x08002b11   Thumb Code   598  stm32f2xx_hal_gpio.o(i.HAL_GPIO_Init)
    HAL_GPIO_ReadPin                         0x08002d99   Thumb Code    10  stm32f2xx_hal_gpio.o(i.HAL_GPIO_ReadPin)
    HAL_GPIO_TogglePin                       0x08002da3   Thumb Code    16  stm32f2xx_hal_gpio.o(i.HAL_GPIO_TogglePin)
    HAL_GPIO_WritePin                        0x08002db3   Thumb Code    10  stm32f2xx_hal_gpio.o(i.HAL_GPIO_WritePin)
    HAL_GetTick                              0x08002dbd   Thumb Code     6  stm32f2xx_hal.o(i.HAL_GetTick)
    HAL_IncTick                              0x08002dc9   Thumb Code    12  stm32f2xx_hal.o(i.HAL_IncTick)
    HAL_Init                                 0x08002dd9   Thumb Code    48  stm32f2xx_hal.o(i.HAL_Init)
    HAL_InitTick                             0x08002e0d   Thumb Code    54  stm32f2xx_hal.o(i.HAL_InitTick)
    HAL_MspInit                              0x08002e4d   Thumb Code    42  stm32f2xx_hal_msp.o(i.HAL_MspInit)
    HAL_NVIC_EnableIRQ                       0x08002e7d   Thumb Code    26  stm32f2xx_hal_cortex.o(i.HAL_NVIC_EnableIRQ)
    HAL_NVIC_SetPriority                     0x08002e99   Thumb Code    60  stm32f2xx_hal_cortex.o(i.HAL_NVIC_SetPriority)
    HAL_NVIC_SetPriorityGrouping             0x08002ed9   Thumb Code    26  stm32f2xx_hal_cortex.o(i.HAL_NVIC_SetPriorityGrouping)
    HAL_RCCEx_PeriphCLKConfig                0x08002efd   Thumb Code   320  stm32f2xx_hal_rcc_ex.o(i.HAL_RCCEx_PeriphCLKConfig)
    HAL_RCC_ClockConfig                      0x08003051   Thumb Code   296  stm32f2xx_hal_rcc.o(i.HAL_RCC_ClockConfig)
    HAL_RCC_GetPCLK1Freq                     0x0800318d   Thumb Code    34  stm32f2xx_hal_rcc.o(i.HAL_RCC_GetPCLK1Freq)
    HAL_RCC_GetPCLK2Freq                     0x080031bd   Thumb Code    34  stm32f2xx_hal_rcc.o(i.HAL_RCC_GetPCLK2Freq)
    HAL_RCC_GetSysClockFreq                  0x080031ed   Thumb Code    88  stm32f2xx_hal_rcc.o(i.HAL_RCC_GetSysClockFreq)
    HAL_RCC_OscConfig                        0x0800324d   Thumb Code   818  stm32f2xx_hal_rcc.o(i.HAL_RCC_OscConfig)
    HAL_RTC_GetDate                          0x08003599   Thumb Code    62  stm32f2xx_hal_rtc.o(i.HAL_RTC_GetDate)
    HAL_RTC_GetTime                          0x080035dd   Thumb Code    62  stm32f2xx_hal_rtc.o(i.HAL_RTC_GetTime)
    HAL_RTC_Init                             0x08003621   Thumb Code   150  stm32f2xx_hal_rtc.o(i.HAL_RTC_Init)
    HAL_RTC_MspInit                          0x080036bd   Thumb Code    16  rtc.o(i.HAL_RTC_MspInit)
    HAL_RTC_SetDate                          0x080036d5   Thumb Code   146  stm32f2xx_hal_rtc.o(i.HAL_RTC_SetDate)
    HAL_RTC_SetTime                          0x0800376d   Thumb Code   186  stm32f2xx_hal_rtc.o(i.HAL_RTC_SetTime)
    HAL_RTC_WaitForSynchro                   0x0800382d   Thumb Code    50  stm32f2xx_hal_rtc.o(i.HAL_RTC_WaitForSynchro)
    HAL_SPI_Init                             0x0800385f   Thumb Code   188  stm32f2xx_hal_spi.o(i.HAL_SPI_Init)
    HAL_SPI_MspInit                          0x0800391d   Thumb Code    94  spi.o(i.HAL_SPI_MspInit)
    HAL_SPI_TransmitReceive                  0x08003989   Thumb Code   494  stm32f2xx_hal_spi.o(i.HAL_SPI_TransmitReceive)
    HAL_SYSTICK_Config                       0x08003b77   Thumb Code    40  stm32f2xx_hal_cortex.o(i.HAL_SYSTICK_Config)
    HAL_TIMEx_BreakCallback                  0x08003b9f   Thumb Code     2  stm32f2xx_hal_tim_ex.o(i.HAL_TIMEx_BreakCallback)
    HAL_TIMEx_CommutCallback                 0x08003ba1   Thumb Code     2  stm32f2xx_hal_tim_ex.o(i.HAL_TIMEx_CommutCallback)
    HAL_TIMEx_MasterConfigSynchronization    0x08003ba5   Thumb Code   116  stm32f2xx_hal_tim_ex.o(i.HAL_TIMEx_MasterConfigSynchronization)
    HAL_TIM_Base_Init                        0x08003c35   Thumb Code    90  stm32f2xx_hal_tim.o(i.HAL_TIM_Base_Init)
    HAL_TIM_Base_MspInit                     0x08003c91   Thumb Code    72  tim.o(i.HAL_TIM_Base_MspInit)
    HAL_TIM_Base_Start                       0x08003ce5   Thumb Code    90  stm32f2xx_hal_tim.o(i.HAL_TIM_Base_Start)
    HAL_TIM_Base_Start_IT                    0x08003d5d   Thumb Code   100  stm32f2xx_hal_tim.o(i.HAL_TIM_Base_Start_IT)
    HAL_TIM_Base_Stop                        0x08003ddd   Thumb Code    38  stm32f2xx_hal_tim.o(i.HAL_TIM_Base_Stop)
    HAL_TIM_IC_CaptureCallback               0x08003e03   Thumb Code     2  stm32f2xx_hal_tim.o(i.HAL_TIM_IC_CaptureCallback)
    HAL_TIM_IRQHandler                       0x08003e05   Thumb Code   358  stm32f2xx_hal_tim.o(i.HAL_TIM_IRQHandler)
    HAL_TIM_MspPostInit                      0x08003f6d   Thumb Code    68  tim.o(i.HAL_TIM_MspPostInit)
    HAL_TIM_OC_DelayElapsedCallback          0x08003fbd   Thumb Code     2  stm32f2xx_hal_tim.o(i.HAL_TIM_OC_DelayElapsedCallback)
    HAL_TIM_PWM_ConfigChannel                0x08003fbf   Thumb Code   204  stm32f2xx_hal_tim.o(i.HAL_TIM_PWM_ConfigChannel)
    HAL_TIM_PWM_Init                         0x0800408b   Thumb Code    90  stm32f2xx_hal_tim.o(i.HAL_TIM_PWM_Init)
    HAL_TIM_PWM_MspInit                      0x080040e5   Thumb Code    30  tim.o(i.HAL_TIM_PWM_MspInit)
    HAL_TIM_PWM_PulseFinishedCallback        0x0800410d   Thumb Code     2  stm32f2xx_hal_tim.o(i.HAL_TIM_PWM_PulseFinishedCallback)
    HAL_TIM_PWM_Start                        0x08004111   Thumb Code   172  stm32f2xx_hal_tim.o(i.HAL_TIM_PWM_Start)
    HAL_TIM_PWM_Stop                         0x080041d9   Thumb Code   114  stm32f2xx_hal_tim.o(i.HAL_TIM_PWM_Stop)
    HAL_TIM_PeriodElapsedCallback            0x08004255   Thumb Code    68  usart.o(i.HAL_TIM_PeriodElapsedCallback)
    HAL_TIM_TriggerCallback                  0x080042a9   Thumb Code     2  stm32f2xx_hal_tim.o(i.HAL_TIM_TriggerCallback)
    HAL_UARTEx_ReceiveToIdle_DMA             0x080042ab   Thumb Code    78  stm32f2xx_hal_uart.o(i.HAL_UARTEx_ReceiveToIdle_DMA)
    HAL_UARTEx_ReceiveToIdle_IT              0x080042f9   Thumb Code    78  stm32f2xx_hal_uart.o(i.HAL_UARTEx_ReceiveToIdle_IT)
    HAL_UARTEx_RxEventCallback               0x08004349   Thumb Code   186  usart.o(i.HAL_UARTEx_RxEventCallback)
    HAL_UART_ErrorCallback                   0x08004429   Thumb Code    24  usart.o(i.HAL_UART_ErrorCallback)
    HAL_UART_IRQHandler                      0x08004449   Thumb Code   618  stm32f2xx_hal_uart.o(i.HAL_UART_IRQHandler)
    HAL_UART_Init                            0x080046b9   Thumb Code   100  stm32f2xx_hal_uart.o(i.HAL_UART_Init)
    HAL_UART_MspInit                         0x0800471d   Thumb Code   556  usart.o(i.HAL_UART_MspInit)
    HAL_UART_RxCpltCallback                  0x08004979   Thumb Code     2  stm32f2xx_hal_uart.o(i.HAL_UART_RxCpltCallback)
    HAL_UART_RxHalfCpltCallback              0x0800497b   Thumb Code     2  stm32f2xx_hal_uart.o(i.HAL_UART_RxHalfCpltCallback)
    HAL_UART_Transmit_DMA                    0x0800497d   Thumb Code   106  stm32f2xx_hal_uart.o(i.HAL_UART_Transmit_DMA)
    HAL_UART_Transmit_IT                     0x080049f5   Thumb Code    50  stm32f2xx_hal_uart.o(i.HAL_UART_Transmit_IT)
    HAL_UART_TxCpltCallback                  0x08004a29   Thumb Code    92  usart.o(i.HAL_UART_TxCpltCallback)
    HAL_UART_TxHalfCpltCallback              0x08004aa5   Thumb Code     2  stm32f2xx_hal_uart.o(i.HAL_UART_TxHalfCpltCallback)
    HardFault_Handler                        0x08004aa7   Thumb Code     2  stm32f2xx_it.o(i.HardFault_Handler)
    HmiAdjustDected                          0x08004aa9   Thumb Code    90  usart.o(i.HmiAdjustDected)
    HmiCmdDealt                              0x08004b11   Thumb Code   876  usart.o(i.HmiCmdDealt)
    HmiWorkTimerRefresh                      0x08004ea1   Thumb Code   266  usart.o(i.HmiWorkTimerRefresh)
    IBPChkSum                                0x08004fb1   Thumb Code    30  usart.o(i.IBPChkSum)
    IBPCmdSend                               0x08004fd1   Thumb Code   314  usart.o(i.IBPCmdSend)
    IBPDataAnalysis                          0x08005119   Thumb Code   596  usart.o(i.IBPDataAnalysis)
    MX_ADC1_Init                             0x08005411   Thumb Code   174  adc.o(i.MX_ADC1_Init)
    MX_DMA_Init                              0x080054d1   Thumb Code    56  dma.o(i.MX_DMA_Init)
    MX_GPIO_Init                             0x0800550d   Thumb Code   232  gpio.o(i.MX_GPIO_Init)
    MX_IWDG_Init                             0x08005605   Thumb Code     2  iwdg.o(i.MX_IWDG_Init)
    MX_RTC_Init                              0x08005609   Thumb Code    44  rtc.o(i.MX_RTC_Init)
    MX_SPI2_Init                             0x0800563d   Thumb Code    64  spi.o(i.MX_SPI2_Init)
    MX_TIM4_Init                             0x08005685   Thumb Code   104  tim.o(i.MX_TIM4_Init)
    MX_TIM6_Init                             0x080056f5   Thumb Code    66  tim.o(i.MX_TIM6_Init)
    MX_TIM7_Init                             0x08005741   Thumb Code    62  tim.o(i.MX_TIM7_Init)
    MX_UART4_Init                            0x08005789   Thumb Code    48  usart.o(i.MX_UART4_Init)
    MX_UART5_Init                            0x080057c1   Thumb Code    48  usart.o(i.MX_UART5_Init)
    MX_USART1_UART_Init                      0x080057f9   Thumb Code    90  usart.o(i.MX_USART1_UART_Init)
    MX_USART2_UART_Init                      0x08005865   Thumb Code    48  usart.o(i.MX_USART2_UART_Init)
    MX_USART3_UART_Init                      0x0800589d   Thumb Code    74  usart.o(i.MX_USART3_UART_Init)
    MakeCrcFlow                              0x080058fd   Thumb Code    50  usart.o(i.MakeCrcFlow)
    MakeCrcModbus                            0x08005931   Thumb Code    54  usart.o(i.MakeCrcModbus)
    MemManage_Handler                        0x08005967   Thumb Code     2  stm32f2xx_it.o(i.MemManage_Handler)
    NMI_Handler                              0x08005969   Thumb Code     2  stm32f2xx_it.o(i.NMI_Handler)
    PendSV_Handler                           0x0800596b   Thumb Code     2  stm32f2xx_it.o(i.PendSV_Handler)
    RGBLedDealt                              0x0800596d   Thumb Code   120  gpio.o(i.RGBLedDealt)
    RTCSetDateAndTime                        0x080059f1   Thumb Code    32  rtc.o(i.RTCSetDateAndTime)
    RTCSetTime                               0x08005a19   Thumb Code    18  rtc.o(i.RTCSetTime)
    RTC_Bcd2ToByte                           0x08005a31   Thumb Code    18  stm32f2xx_hal_rtc.o(i.RTC_Bcd2ToByte)
    RTC_ByteToBcd2                           0x08005a43   Thumb Code    22  stm32f2xx_hal_rtc.o(i.RTC_ByteToBcd2)
    RTC_EnterInitMode                        0x08005a59   Thumb Code    72  stm32f2xx_hal_rtc.o(i.RTC_EnterInitMode)
    RTC_ExitInitMode                         0x08005aa1   Thumb Code    34  stm32f2xx_hal_rtc.o(i.RTC_ExitInitMode)
    RtcGetDateTime                           0x08005ac5   Thumb Code    28  rtc.o(i.RtcGetDateTime)
    RtcSetDate                               0x08005ae9   Thumb Code    18  rtc.o(i.RtcSetDate)
    SVC_Handler                              0x08005bd9   Thumb Code     2  stm32f2xx_it.o(i.SVC_Handler)
    SetCtrlVisable                           0x08005bdb   Thumb Code    76  usart.o(i.SetCtrlVisable)
    SetRTCToHmi                              0x08005c29   Thumb Code   118  usart.o(i.SetRTCToHmi)
    SetScreenCurveRange                      0x08005ca5   Thumb Code    88  usart.o(i.SetScreenCurveRange)
    SpiFlashEraseSector                      0x08005d05   Thumb Code    58  spi.o(i.SpiFlashEraseSector)
    SpiFlashRead                             0x08005d45   Thumb Code    74  spi.o(i.SpiFlashRead)
    SpiFlashReadID                           0x08005d95   Thumb Code   104  spi.o(i.SpiFlashReadID)
    SpiFlashReadOffset                       0x08005e01   Thumb Code    38  spi.o(i.SpiFlashReadOffset)
    SpiFlashReadSR                           0x08005e31   Thumb Code    68  spi.o(i.SpiFlashReadSR)
    SpiFlashSetOffset                        0x08005e99   Thumb Code    52  spi.o(i.SpiFlashSetOffset)
    SpiFlashWrite                            0x08005ee1   Thumb Code    86  spi.o(i.SpiFlashWrite)
    SpiFlashWriteEnable                      0x08005f3d   Thumb Code    38  spi.o(i.SpiFlashWriteEnable)
    SpiReadWriteByte                         0x08005f69   Thumb Code    28  spi.o(i.SpiReadWriteByte)
    SysTick_Handler                          0x08005f89   Thumb Code   138  stm32f2xx_it.o(i.SysTick_Handler)
    SystemClock_Config                       0x08006019   Thumb Code   134  main.o(i.SystemClock_Config)
    SystemInit                               0x0800609f   Thumb Code     2  system_stm32f2xx.o(i.SystemInit)
    TIM6_DAC_IRQHandler                      0x080060a1   Thumb Code     6  stm32f2xx_it.o(i.TIM6_DAC_IRQHandler)
    TIM_Base_SetConfig                       0x080060ad   Thumb Code   156  stm32f2xx_hal_tim.o(i.TIM_Base_SetConfig)
    TIM_CCxChannelCmd                        0x08006175   Thumb Code    26  stm32f2xx_hal_tim.o(i.TIM_CCxChannelCmd)
    TIM_OC2_SetConfig                        0x080061f1   Thumb Code    98  stm32f2xx_hal_tim.o(i.TIM_OC2_SetConfig)
    UART4_IRQHandler                         0x08006315   Thumb Code     6  stm32f2xx_it.o(i.UART4_IRQHandler)
    UART5_IRQHandler                         0x08006321   Thumb Code     6  stm32f2xx_it.o(i.UART5_IRQHandler)
    UART_Start_Receive_DMA                   0x080066c9   Thumb Code   130  stm32f2xx_hal_uart.o(i.UART_Start_Receive_DMA)
    UART_Start_Receive_IT                    0x08006759   Thumb Code    54  stm32f2xx_hal_uart.o(i.UART_Start_Receive_IT)
    USART1_IRQHandler                        0x08006791   Thumb Code     6  stm32f2xx_it.o(i.USART1_IRQHandler)
    USART2_IRQHandler                        0x0800679d   Thumb Code     6  stm32f2xx_it.o(i.USART2_IRQHandler)
    USART3_IRQHandler                        0x080067a9   Thumb Code     6  stm32f2xx_it.o(i.USART3_IRQHandler)
    UsageFault_Handler                       0x080067b5   Thumb Code     2  stm32f2xx_it.o(i.UsageFault_Handler)
    UsartSendData                            0x080067b9   Thumb Code   148  usart.o(i.UsartSendData)
    UsartSetTxBuf                            0x08006861   Thumb Code   122  usart.o(i.UsartSetTxBuf)
    __ARM_fpclassify                         0x080068e5   Thumb Code    40  fpclassify.o(i.__ARM_fpclassify)
    _is_digit                                0x0800692d   Thumb Code    14  __printf_wp.o(i._is_digit)
    main                                     0x0800693d   Thumb Code   942  main.o(i.main)
    _get_lc_numeric                          0x08006df5   Thumb Code    44  lc_numeric_c.o(locale$$code)
    __aeabi_d2f                              0x08006e21   Thumb Code     0  d2f.o(x$fpl$d2f)
    _d2f                                     0x08006e21   Thumb Code    98  d2f.o(x$fpl$d2f)
    __aeabi_dadd                             0x08006e85   Thumb Code     0  daddsub_clz.o(x$fpl$dadd)
    _dadd                                    0x08006e85   Thumb Code   332  daddsub_clz.o(x$fpl$dadd)
    __fpl_dcheck_NaN1                        0x08006fd5   Thumb Code    10  dcheck1.o(x$fpl$dcheck1)
    __aeabi_ddiv                             0x08006fe5   Thumb Code     0  ddiv.o(x$fpl$ddiv)
    _ddiv                                    0x08006fe5   Thumb Code   552  ddiv.o(x$fpl$ddiv)
    __aeabi_d2iz                             0x08007295   Thumb Code     0  dfix.o(x$fpl$dfix)
    _dfix                                    0x08007295   Thumb Code    94  dfix.o(x$fpl$dfix)
    __aeabi_d2uiz                            0x080072f5   Thumb Code     0  dfixu.o(x$fpl$dfixu)
    _dfixu                                   0x080072f5   Thumb Code    90  dfixu.o(x$fpl$dfixu)
    __aeabi_i2d                              0x0800734f   Thumb Code     0  dflt_clz.o(x$fpl$dflt)
    _dflt                                    0x0800734f   Thumb Code    46  dflt_clz.o(x$fpl$dflt)
    __aeabi_ui2d                             0x0800737d   Thumb Code     0  dflt_clz.o(x$fpl$dfltu)
    _dfltu                                   0x0800737d   Thumb Code    38  dflt_clz.o(x$fpl$dfltu)
    __aeabi_dmul                             0x080073a5   Thumb Code     0  dmul.o(x$fpl$dmul)
    _dmul                                    0x080073a5   Thumb Code   332  dmul.o(x$fpl$dmul)
    __fpl_dnaninf                            0x080074f9   Thumb Code   156  dnaninf.o(x$fpl$dnaninf)
    __fpl_dretinf                            0x08007595   Thumb Code    12  dretinf.o(x$fpl$dretinf)
    __aeabi_drsub                            0x080075a1   Thumb Code     0  daddsub_clz.o(x$fpl$drsb)
    _drsb                                    0x080075a1   Thumb Code    22  daddsub_clz.o(x$fpl$drsb)
    __aeabi_dsub                             0x080075b9   Thumb Code     0  daddsub_clz.o(x$fpl$dsub)
    _dsub                                    0x080075b9   Thumb Code   464  daddsub_clz.o(x$fpl$dsub)
    __aeabi_f2d                              0x0800778d   Thumb Code     0  f2d.o(x$fpl$f2d)
    _f2d                                     0x0800778d   Thumb Code    86  f2d.o(x$fpl$f2d)
    __aeabi_fadd                             0x080077e5   Thumb Code     0  faddsub_clz.o(x$fpl$fadd)
    _fadd                                    0x080077e5   Thumb Code   196  faddsub_clz.o(x$fpl$fadd)
    __aeabi_fdiv                             0x080078a9   Thumb Code     0  fdiv.o(x$fpl$fdiv)
    _fdiv                                    0x080078a9   Thumb Code   384  fdiv.o(x$fpl$fdiv)
    __aeabi_f2iz                             0x08007a2d   Thumb Code     0  ffix.o(x$fpl$ffix)
    _ffix                                    0x08007a2d   Thumb Code    54  ffix.o(x$fpl$ffix)
    __aeabi_ui2f                             0x08007a65   Thumb Code     0  fflt_clz.o(x$fpl$ffltu)
    _ffltu                                   0x08007a65   Thumb Code    38  fflt_clz.o(x$fpl$ffltu)
    __aeabi_fmul                             0x08007a8d   Thumb Code     0  fmul.o(x$fpl$fmul)
    _fmul                                    0x08007a8d   Thumb Code   258  fmul.o(x$fpl$fmul)
    __fpl_fnaninf                            0x08007b8f   Thumb Code   140  fnaninf.o(x$fpl$fnaninf)
    __fpl_fretinf                            0x08007c1b   Thumb Code    10  fretinf.o(x$fpl$fretinf)
    __aeabi_fsub                             0x08007c25   Thumb Code     0  faddsub_clz.o(x$fpl$fsub)
    _fsub                                    0x08007c25   Thumb Code   234  faddsub_clz.o(x$fpl$fsub)
    _printf_fp_dec                           0x08007d0f   Thumb Code     4  printf1.o(x$fpl$printf1)
    __fpl_return_NaN                         0x08007d13   Thumb Code   100  retnan.o(x$fpl$retnan)
    __ARM_scalbn                             0x08007d77   Thumb Code    92  scalbn.o(x$fpl$scalbn)
    __fpl_cmpreturn                          0x08007dd3   Thumb Code    48  trapv.o(x$fpl$trapveneer)
    __I$use$fp                               0x08007e02   Number         0  usenofp.o(x$fpl$usenofp)
    AHBPrescTable                            0x08007e24   Data          16  system_stm32f2xx.o(.constdata)
    APBPrescTable                            0x08007e34   Data           8  system_stm32f2xx.o(.constdata)
    Region$$Table$$Base                      0x08007f0c   Number         0  anon$$obj.o(Region$$Table)
    Region$$Table$$Limit                     0x08007f2c   Number         0  anon$$obj.o(Region$$Table)
    em1Status                                0x20000000   Data           1  gpio.o(.data)
    em0Status                                0x20000001   Data           1  gpio.o(.data)
    rgbLed                                   0x20000002   Data           1  gpio.o(.data)
    offsetPre1                               0x2000000c   Data           4  spi.o(.data)
    offsetPre2                               0x20000010   Data           4  spi.o(.data)
    setFlag                                  0x2000001b   Data           1  usart.o(.data)
    pswInput                                 0x2000002c   Data           4  usart.o(.data)
    sysTimeFlag                              0x20000050   Data           8  stm32f2xx_it.o(.data)
    uwTickFreq                               0x20000058   Data           1  stm32f2xx_hal.o(.data)
    uwTickPrio                               0x2000005c   Data           4  stm32f2xx_hal.o(.data)
    uwTick                                   0x20000060   Data           4  stm32f2xx_hal.o(.data)
    SystemCoreClock                          0x20000064   Data           4  system_stm32f2xx.o(.data)
    temp                                     0x20000068   Data          16  main.o(.bss)
    sysAdcValue                              0x20000090   Data          12  adc.o(.bss)
    hadc1                                    0x200003cc   Data          72  adc.o(.bss)
    valueAfter                               0x20000414   Data          12  adc.o(.bss)
    hrtc                                     0x20000498   Data          32  rtc.o(.bss)
    hspi2                                    0x200004b8   Data          88  spi.o(.bss)
    htim4                                    0x20000510   Data          72  tim.o(.bss)
    htim6                                    0x20000558   Data          72  tim.o(.bss)
    htim7                                    0x200005a0   Data          72  tim.o(.bss)
    dataDebug                                0x20000748   Data        1502  usart.o(.bss)
    queDebug                                 0x20000d26   Data         202  usart.o(.bss)
    dataHMI                                  0x20000df0   Data        1502  usart.o(.bss)
    queHMI                                   0x200013ce   Data         202  usart.o(.bss)
    flowRxBuf                                0x20001880   Data          60  usart.o(.bss)
    hmiRxBuf                                 0x200018bc   Data          30  usart.o(.bss)
    batRxBuf                                 0x200018da   Data          60  usart.o(.bss)
    ibpBuffer                                0x20001916   Data        1006  usart.o(.bss)
    sysIbpPar                                0x20001d04   Data          52  usart.o(.bss)
    ibpCmdQue                                0x20001d38   Data          64  usart.o(.bss)
    sysFlowPar                               0x20001d78   Data          28  usart.o(.bss)
    hmiCmd                                   0x20001d94   Data         312  usart.o(.bss)
    sysHmiPar                                0x20001ecc   Data          48  usart.o(.bss)
    huart4                                   0x20001efc   Data          72  usart.o(.bss)
    huart5                                   0x20001f44   Data          72  usart.o(.bss)
    huart1                                   0x20001f8c   Data          72  usart.o(.bss)
    huart2                                   0x20001fd4   Data          72  usart.o(.bss)
    huart3                                   0x2000201c   Data          72  usart.o(.bss)
    hdma_usart1_rx                           0x20002064   Data          96  usart.o(.bss)
    hdma_usart1_tx                           0x200020c4   Data          96  usart.o(.bss)
    __libspace_start                         0x20002124   Data          96  libspace.o(.bss)
    __temporary_stack_top$libspace           0x20002184   Data           0  libspace.o(.bss)



==============================================================================

Memory Map of the image

  Image Entry point : 0x08000185

  Load Region LR_IROM1 (Base: 0x08000000, Size: 0x00007fb0, Max: 0x00040000, ABSOLUTE)

    Execution Region ER_IROM1 (Exec base: 0x08000000, Load base: 0x08000000, Size: 0x00007f48, Max: 0x00040000, ABSOLUTE)

    Exec Addr    Load Addr    Size         Type   Attr      Idx    E Section Name        Object

    0x08000000   0x08000000   0x00000184   Data   RO            3    RESET               startup_stm32f205xx.o
    0x08000184   0x08000184   0x00000008   Code   RO         4614  * !!!main             c_w.l(__main.o)
    0x0800018c   0x0800018c   0x00000034   Code   RO         4910    !!!scatter          c_w.l(__scatter.o)
    0x080001c0   0x080001c0   0x0000001a   Code   RO         4912    !!handler_copy      c_w.l(__scatter_copy.o)
    0x080001da   0x080001da   0x00000002   PAD
    0x080001dc   0x080001dc   0x0000001c   Code   RO         4914    !!handler_zi        c_w.l(__scatter_zi.o)
    0x080001f8   0x080001f8   0x00000000   Code   RO         4607    .ARM.Collect$$_printf_percent$$00000000  c_w.l(_printf_percent.o)
    0x080001f8   0x080001f8   0x00000006   Code   RO         4606    .ARM.Collect$$_printf_percent$$00000003  c_w.l(_printf_f.o)
    0x080001fe   0x080001fe   0x00000006   Code   RO         4605    .ARM.Collect$$_printf_percent$$00000009  c_w.l(_printf_d.o)
    0x08000204   0x08000204   0x00000006   Code   RO         4604    .ARM.Collect$$_printf_percent$$0000000C  c_w.l(_printf_x.o)
    0x0800020a   0x0800020a   0x00000006   Code   RO         4603    .ARM.Collect$$_printf_percent$$00000014  c_w.l(_printf_s.o)
    0x08000210   0x08000210   0x00000004   Code   RO         4687    .ARM.Collect$$_printf_percent$$00000017  c_w.l(_printf_percent_end.o)
    0x08000214   0x08000214   0x00000002   Code   RO         4779    .ARM.Collect$$libinit$$00000000  c_w.l(libinit.o)
    0x08000216   0x08000216   0x00000000   Code   RO         4781    .ARM.Collect$$libinit$$00000002  c_w.l(libinit2.o)
    0x08000216   0x08000216   0x00000000   Code   RO         4783    .ARM.Collect$$libinit$$00000004  c_w.l(libinit2.o)
    0x08000216   0x08000216   0x00000000   Code   RO         4786    .ARM.Collect$$libinit$$0000000A  c_w.l(libinit2.o)
    0x08000216   0x08000216   0x00000000   Code   RO         4788    .ARM.Collect$$libinit$$0000000C  c_w.l(libinit2.o)
    0x08000216   0x08000216   0x00000000   Code   RO         4790    .ARM.Collect$$libinit$$0000000E  c_w.l(libinit2.o)
    0x08000216   0x08000216   0x00000006   Code   RO         4791    .ARM.Collect$$libinit$$0000000F  c_w.l(libinit2.o)
    0x0800021c   0x0800021c   0x00000000   Code   RO         4793    .ARM.Collect$$libinit$$00000011  c_w.l(libinit2.o)
    0x0800021c   0x0800021c   0x00000000   Code   RO         4795    .ARM.Collect$$libinit$$00000013  c_w.l(libinit2.o)
    0x0800021c   0x0800021c   0x00000000   Code   RO         4797    .ARM.Collect$$libinit$$00000015  c_w.l(libinit2.o)
    0x0800021c   0x0800021c   0x0000000a   Code   RO         4798    .ARM.Collect$$libinit$$00000016  c_w.l(libinit2.o)
    0x08000226   0x08000226   0x00000000   Code   RO         4799    .ARM.Collect$$libinit$$00000017  c_w.l(libinit2.o)
    0x08000226   0x08000226   0x00000000   Code   RO         4801    .ARM.Collect$$libinit$$00000019  c_w.l(libinit2.o)
    0x08000226   0x08000226   0x00000000   Code   RO         4803    .ARM.Collect$$libinit$$0000001B  c_w.l(libinit2.o)
    0x08000226   0x08000226   0x00000000   Code   RO         4805    .ARM.Collect$$libinit$$0000001D  c_w.l(libinit2.o)
    0x08000226   0x08000226   0x00000000   Code   RO         4807    .ARM.Collect$$libinit$$0000001F  c_w.l(libinit2.o)
    0x08000226   0x08000226   0x00000000   Code   RO         4809    .ARM.Collect$$libinit$$00000021  c_w.l(libinit2.o)
    0x08000226   0x08000226   0x00000000   Code   RO         4811    .ARM.Collect$$libinit$$00000023  c_w.l(libinit2.o)
    0x08000226   0x08000226   0x00000000   Code   RO         4813    .ARM.Collect$$libinit$$00000025  c_w.l(libinit2.o)
    0x08000226   0x08000226   0x00000000   Code   RO         4817    .ARM.Collect$$libinit$$0000002C  c_w.l(libinit2.o)
    0x08000226   0x08000226   0x00000000   Code   RO         4819    .ARM.Collect$$libinit$$0000002E  c_w.l(libinit2.o)
    0x08000226   0x08000226   0x00000000   Code   RO         4821    .ARM.Collect$$libinit$$00000030  c_w.l(libinit2.o)
    0x08000226   0x08000226   0x00000000   Code   RO         4823    .ARM.Collect$$libinit$$00000032  c_w.l(libinit2.o)
    0x08000226   0x08000226   0x00000002   Code   RO         4824    .ARM.Collect$$libinit$$00000033  c_w.l(libinit2.o)
    0x08000228   0x08000228   0x00000002   Code   RO         4873    .ARM.Collect$$libshutdown$$00000000  c_w.l(libshutdown.o)
    0x0800022a   0x0800022a   0x00000000   Code   RO         4891    .ARM.Collect$$libshutdown$$00000002  c_w.l(libshutdown2.o)
    0x0800022a   0x0800022a   0x00000000   Code   RO         4893    .ARM.Collect$$libshutdown$$00000004  c_w.l(libshutdown2.o)
    0x0800022a   0x0800022a   0x00000000   Code   RO         4895    .ARM.Collect$$libshutdown$$00000006  c_w.l(libshutdown2.o)
    0x0800022a   0x0800022a   0x00000000   Code   RO         4898    .ARM.Collect$$libshutdown$$00000009  c_w.l(libshutdown2.o)
    0x0800022a   0x0800022a   0x00000000   Code   RO         4901    .ARM.Collect$$libshutdown$$0000000C  c_w.l(libshutdown2.o)
    0x0800022a   0x0800022a   0x00000000   Code   RO         4903    .ARM.Collect$$libshutdown$$0000000E  c_w.l(libshutdown2.o)
    0x0800022a   0x0800022a   0x00000000   Code   RO         4906    .ARM.Collect$$libshutdown$$00000011  c_w.l(libshutdown2.o)
    0x0800022a   0x0800022a   0x00000002   Code   RO         4907    .ARM.Collect$$libshutdown$$00000012  c_w.l(libshutdown2.o)
    0x0800022c   0x0800022c   0x00000000   Code   RO         4672    .ARM.Collect$$rtentry$$00000000  c_w.l(__rtentry.o)
    0x0800022c   0x0800022c   0x00000000   Code   RO         4700    .ARM.Collect$$rtentry$$00000002  c_w.l(__rtentry2.o)
    0x0800022c   0x0800022c   0x00000006   Code   RO         4712    .ARM.Collect$$rtentry$$00000004  c_w.l(__rtentry4.o)
    0x08000232   0x08000232   0x00000000   Code   RO         4702    .ARM.Collect$$rtentry$$00000009  c_w.l(__rtentry2.o)
    0x08000232   0x08000232   0x00000004   Code   RO         4703    .ARM.Collect$$rtentry$$0000000A  c_w.l(__rtentry2.o)
    0x08000236   0x08000236   0x00000000   Code   RO         4705    .ARM.Collect$$rtentry$$0000000C  c_w.l(__rtentry2.o)
    0x08000236   0x08000236   0x00000008   Code   RO         4706    .ARM.Collect$$rtentry$$0000000D  c_w.l(__rtentry2.o)
    0x0800023e   0x0800023e   0x00000002   Code   RO         4827    .ARM.Collect$$rtexit$$00000000  c_w.l(rtexit.o)
    0x08000240   0x08000240   0x00000000   Code   RO         4842    .ARM.Collect$$rtexit$$00000002  c_w.l(rtexit2.o)
    0x08000240   0x08000240   0x00000004   Code   RO         4843    .ARM.Collect$$rtexit$$00000003  c_w.l(rtexit2.o)
    0x08000244   0x08000244   0x00000006   Code   RO         4844    .ARM.Collect$$rtexit$$00000004  c_w.l(rtexit2.o)
    0x0800024a   0x0800024a   0x00000002   PAD
    0x0800024c   0x0800024c   0x00000040   Code   RO            4    .text               startup_stm32f205xx.o
    0x0800028c   0x0800028c   0x000000ee   Code   RO         4548    .text               c_w.l(lludivv7m.o)
    0x0800037a   0x0800037a   0x00000002   PAD
    0x0800037c   0x0800037c   0x00000028   Code   RO         4552    .text               c_w.l(noretval__2sprintf.o)
    0x080003a4   0x080003a4   0x0000004e   Code   RO         4556    .text               c_w.l(_printf_pad.o)
    0x080003f2   0x080003f2   0x00000052   Code   RO         4558    .text               c_w.l(_printf_str.o)
    0x08000444   0x08000444   0x00000078   Code   RO         4560    .text               c_w.l(_printf_dec.o)
    0x080004bc   0x080004bc   0x00000058   Code   RO         4565    .text               c_w.l(_printf_hex_int.o)
    0x08000514   0x08000514   0x00000138   Code   RO         4595    .text               c_w.l(__printf_flags_wp.o)
    0x0800064c   0x0800064c   0x0000003e   Code   RO         4608    .text               c_w.l(strlen.o)
    0x0800068a   0x0800068a   0x0000004e   Code   RO         4610    .text               c_w.l(rt_memclr_w.o)
    0x080006d8   0x080006d8   0x00000006   Code   RO         4612    .text               c_w.l(heapauxi.o)
    0x080006de   0x080006de   0x000000b2   Code   RO         4677    .text               c_w.l(_printf_intcommon.o)
    0x08000790   0x08000790   0x0000041e   Code   RO         4679    .text               c_w.l(_printf_fp_dec.o)
    0x08000bae   0x08000bae   0x00000002   PAD
    0x08000bb0   0x08000bb0   0x00000030   Code   RO         4681    .text               c_w.l(_printf_char_common.o)
    0x08000be0   0x08000be0   0x0000000a   Code   RO         4683    .text               c_w.l(_sputc.o)
    0x08000bea   0x08000bea   0x0000002c   Code   RO         4685    .text               c_w.l(_printf_char.o)
    0x08000c16   0x08000c16   0x00000002   PAD
    0x08000c18   0x08000c18   0x00000008   Code   RO         4719    .text               c_w.l(rt_locale_intlibspace.o)
    0x08000c20   0x08000c20   0x0000008a   Code   RO         4721    .text               c_w.l(lludiv10.o)
    0x08000caa   0x08000caa   0x00000002   PAD
    0x08000cac   0x08000cac   0x00000080   Code   RO         4723    .text               c_w.l(_printf_fp_infnan.o)
    0x08000d2c   0x08000d2c   0x000000e4   Code   RO         4727    .text               c_w.l(bigflt0.o)
    0x08000e10   0x08000e10   0x00000008   Code   RO         4761    .text               c_w.l(libspace.o)
    0x08000e18   0x08000e18   0x0000004a   Code   RO         4764    .text               c_w.l(sys_stackheap_outer.o)
    0x08000e62   0x08000e62   0x00000012   Code   RO         4766    .text               c_w.l(exit.o)
    0x08000e74   0x08000e74   0x00000080   Code   RO         4772    .text               c_w.l(strcmpv7m.o)
    0x08000ef4   0x08000ef4   0x0000000c   Code   RO         4839    .text               c_w.l(sys_exit.o)
    0x08000f00   0x08000f00   0x00000002   Code   RO         4860    .text               c_w.l(use_no_semi.o)
    0x08000f02   0x08000f02   0x00000000   Code   RO         4862    .text               c_w.l(indicate_semi.o)
    0x08000f02   0x08000f02   0x0000003e   Code   RO         4730    CL$$btod_d2e        c_w.l(btod.o)
    0x08000f40   0x08000f40   0x00000046   Code   RO         4732    CL$$btod_d2e_denorm_low  c_w.l(btod.o)
    0x08000f86   0x08000f86   0x00000060   Code   RO         4731    CL$$btod_d2e_norm_op1  c_w.l(btod.o)
    0x08000fe6   0x08000fe6   0x00000338   Code   RO         4740    CL$$btod_div_common  c_w.l(btod.o)
    0x0800131e   0x0800131e   0x000000dc   Code   RO         4737    CL$$btod_e2e        c_w.l(btod.o)
    0x080013fa   0x080013fa   0x0000002a   Code   RO         4734    CL$$btod_ediv       c_w.l(btod.o)
    0x08001424   0x08001424   0x0000002a   Code   RO         4733    CL$$btod_emul       c_w.l(btod.o)
    0x0800144e   0x0800144e   0x00000244   Code   RO         4739    CL$$btod_mult_common  c_w.l(btod.o)
    0x08001692   0x08001692   0x00000002   PAD
    0x08001694   0x08001694   0x000000a0   Code   RO          250    i.ADCFilter         adc.o
    0x08001734   0x08001734   0x00000138   Code   RO         1098    i.ADC_Init          stm32f2xx_hal_adc.o
    0x0800186c   0x0800186c   0x00000098   Code   RO          251    i.AdcConvert        adc.o
    0x08001904   0x08001904   0x00000030   Code   RO          252    i.AdcFilterValue    adc.o
    0x08001934   0x08001934   0x00000074   Code   RO          618    i.AdcSetSpeed       usart.o
    0x080019a8   0x080019a8   0x00000060   Code   RO          619    i.AddHistorySampleDateFloat  usart.o
    0x08001a08   0x08001a08   0x0000007c   Code   RO          620    i.AddHistorySampleDateFloatTwice  usart.o
    0x08001a84   0x08001a84   0x00000016   Code   RO          621    i.BIN2BCD           usart.o
    0x08001a9a   0x08001a9a   0x00000002   PAD
    0x08001a9c   0x08001a9c   0x00000044   Code   RO          622    i.BatteryDealt      usart.o
    0x08001ae0   0x08001ae0   0x0000005c   Code   RO          623    i.BatteryGetData    usart.o
    0x08001b3c   0x08001b3c   0x000000bc   Code   RO          624    i.BatteryUpDate     usart.o
    0x08001bf8   0x08001bf8   0x00000080   Code   RO          625    i.BubbleTimer       usart.o
    0x08001c78   0x08001c78   0x00000002   Code   RO          940    i.BusFault_Handler  stm32f2xx_it.o
    0x08001c7a   0x08001c7a   0x00000078   Code   RO          626    i.ChangeCurveRange  usart.o
    0x08001cf2   0x08001cf2   0x00000050   Code   RO          627    i.ChangeIconFrame   usart.o
    0x08001d42   0x08001d42   0x00000002   PAD
    0x08001d44   0x08001d44   0x00000078   Code   RO          628    i.ChangePSWTxt      usart.o
    0x08001dbc   0x08001dbc   0x0000003e   Code   RO          629    i.ChangeScreen      usart.o
    0x08001dfa   0x08001dfa   0x0000004c   Code   RO          630    i.ChangeSelectorIndex  usart.o
    0x08001e46   0x08001e46   0x00000002   PAD
    0x08001e48   0x08001e48   0x00000030   Code   RO          631    i.ChangeSetSpeed    usart.o
    0x08001e78   0x08001e78   0x00000044   Code   RO          632    i.ChangeSetTemp     usart.o
    0x08001ebc   0x08001ebc   0x000000b8   Code   RO          634    i.ChangeTxtValue    usart.o
    0x08001f74   0x08001f74   0x00000048   Code   RO          635    i.ClearTxtContent   usart.o
    0x08001fbc   0x08001fbc   0x0000000c   Code   RO          941    i.DMA2_Stream2_IRQHandler  stm32f2xx_it.o
    0x08001fc8   0x08001fc8   0x0000000c   Code   RO          942    i.DMA2_Stream7_IRQHandler  stm32f2xx_it.o
    0x08001fd4   0x08001fd4   0x00000028   Code   RO         2241    i.DMA_CalcBaseAndBitshift  stm32f2xx_hal_dma.o
    0x08001ffc   0x08001ffc   0x00000054   Code   RO         2242    i.DMA_CheckFifoParam  stm32f2xx_hal_dma.o
    0x08002050   0x08002050   0x00000028   Code   RO         2243    i.DMA_SetConfig     stm32f2xx_hal_dma.o
    0x08002078   0x08002078   0x00000002   Code   RO          943    i.DebugMon_Handler  stm32f2xx_it.o
    0x0800207a   0x0800207a   0x00000004   Code   RO           13    i.Error_Handler     main.o
    0x0800207e   0x0800207e   0x00000002   PAD
    0x08002080   0x08002080   0x00000018   Code   RO          636    i.FLowGetData       usart.o
    0x08002098   0x08002098   0x00000160   Code   RO          637    i.FlowDealt         usart.o
    0x080021f8   0x080021f8   0x0000006c   Code   RO          639    i.FlowGetMeasure    usart.o
    0x08002264   0x08002264   0x00000084   Code   RO          640    i.FlowSetBuble      usart.o
    0x080022e8   0x080022e8   0x0000002e   Code   RO          641    i.GetRTCFromHMI     usart.o
    0x08002316   0x08002316   0x00000002   PAD
    0x08002318   0x08002318   0x00000104   Code   RO          206    i.GpioChk           gpio.o
    0x0800241c   0x0800241c   0x00000150   Code   RO         1100    i.HAL_ADC_ConfigChannel  stm32f2xx_hal_adc.o
    0x0800256c   0x0800256c   0x00000006   Code   RO         1107    i.HAL_ADC_GetValue  stm32f2xx_hal_adc.o
    0x08002572   0x08002572   0x00000054   Code   RO         1109    i.HAL_ADC_Init      stm32f2xx_hal_adc.o
    0x080025c6   0x080025c6   0x00000002   PAD
    0x080025c8   0x080025c8   0x00000084   Code   RO          254    i.HAL_ADC_MspInit   adc.o
    0x0800264c   0x0800264c   0x000000c8   Code   RO         1115    i.HAL_ADC_Start     stm32f2xx_hal_adc.o
    0x08002714   0x08002714   0x0000003c   Code   RO         1118    i.HAL_ADC_Stop      stm32f2xx_hal_adc.o
    0x08002750   0x08002750   0x00000092   Code   RO         2244    i.HAL_DMA_Abort     stm32f2xx_hal_dma.o
    0x080027e2   0x080027e2   0x00000024   Code   RO         2245    i.HAL_DMA_Abort_IT  stm32f2xx_hal_dma.o
    0x08002806   0x08002806   0x00000002   PAD
    0x08002808   0x08002808   0x000001a0   Code   RO         2249    i.HAL_DMA_IRQHandler  stm32f2xx_hal_dma.o
    0x080029a8   0x080029a8   0x000000d4   Code   RO         2250    i.HAL_DMA_Init      stm32f2xx_hal_dma.o
    0x08002a7c   0x08002a7c   0x0000006e   Code   RO         2254    i.HAL_DMA_Start_IT  stm32f2xx_hal_dma.o
    0x08002aea   0x08002aea   0x00000002   PAD
    0x08002aec   0x08002aec   0x00000024   Code   RO         1377    i.HAL_Delay         stm32f2xx_hal.o
    0x08002b10   0x08002b10   0x00000288   Code   RO         2178    i.HAL_GPIO_Init     stm32f2xx_hal_gpio.o
    0x08002d98   0x08002d98   0x0000000a   Code   RO         2180    i.HAL_GPIO_ReadPin  stm32f2xx_hal_gpio.o
    0x08002da2   0x08002da2   0x00000010   Code   RO         2181    i.HAL_GPIO_TogglePin  stm32f2xx_hal_gpio.o
    0x08002db2   0x08002db2   0x0000000a   Code   RO         2182    i.HAL_GPIO_WritePin  stm32f2xx_hal_gpio.o
    0x08002dbc   0x08002dbc   0x0000000c   Code   RO         1383    i.HAL_GetTick       stm32f2xx_hal.o
    0x08002dc8   0x08002dc8   0x00000010   Code   RO         1389    i.HAL_IncTick       stm32f2xx_hal.o
    0x08002dd8   0x08002dd8   0x00000034   Code   RO         1390    i.HAL_Init          stm32f2xx_hal.o
    0x08002e0c   0x08002e0c   0x00000040   Code   RO         1391    i.HAL_InitTick      stm32f2xx_hal.o
    0x08002e4c   0x08002e4c   0x00000030   Code   RO         1071    i.HAL_MspInit       stm32f2xx_hal_msp.o
    0x08002e7c   0x08002e7c   0x0000001a   Code   RO         1705    i.HAL_NVIC_EnableIRQ  stm32f2xx_hal_cortex.o
    0x08002e96   0x08002e96   0x00000002   PAD
    0x08002e98   0x08002e98   0x00000040   Code   RO         1711    i.HAL_NVIC_SetPriority  stm32f2xx_hal_cortex.o
    0x08002ed8   0x08002ed8   0x00000024   Code   RO         1712    i.HAL_NVIC_SetPriorityGrouping  stm32f2xx_hal_cortex.o
    0x08002efc   0x08002efc   0x00000154   Code   RO         1661    i.HAL_RCCEx_PeriphCLKConfig  stm32f2xx_hal_rcc_ex.o
    0x08003050   0x08003050   0x0000013c   Code   RO         1557    i.HAL_RCC_ClockConfig  stm32f2xx_hal_rcc.o
    0x0800318c   0x0800318c   0x00000030   Code   RO         1564    i.HAL_RCC_GetPCLK1Freq  stm32f2xx_hal_rcc.o
    0x080031bc   0x080031bc   0x00000030   Code   RO         1565    i.HAL_RCC_GetPCLK2Freq  stm32f2xx_hal_rcc.o
    0x080031ec   0x080031ec   0x00000060   Code   RO         1566    i.HAL_RCC_GetSysClockFreq  stm32f2xx_hal_rcc.o
    0x0800324c   0x0800324c   0x0000034c   Code   RO         1569    i.HAL_RCC_OscConfig  stm32f2xx_hal_rcc.o
    0x08003598   0x08003598   0x00000044   Code   RO         2500    i.HAL_RTC_GetDate   stm32f2xx_hal_rtc.o
    0x080035dc   0x080035dc   0x00000044   Code   RO         2502    i.HAL_RTC_GetTime   stm32f2xx_hal_rtc.o
    0x08003620   0x08003620   0x0000009c   Code   RO         2503    i.HAL_RTC_Init      stm32f2xx_hal_rtc.o
    0x080036bc   0x080036bc   0x00000018   Code   RO          371    i.HAL_RTC_MspInit   rtc.o
    0x080036d4   0x080036d4   0x00000098   Code   RO         2509    i.HAL_RTC_SetDate   stm32f2xx_hal_rtc.o
    0x0800376c   0x0800376c   0x000000c0   Code   RO         2510    i.HAL_RTC_SetTime   stm32f2xx_hal_rtc.o
    0x0800382c   0x0800382c   0x00000032   Code   RO         2511    i.HAL_RTC_WaitForSynchro  stm32f2xx_hal_rtc.o
    0x0800385e   0x0800385e   0x000000bc   Code   RO         2864    i.HAL_SPI_Init      stm32f2xx_hal_spi.o
    0x0800391a   0x0800391a   0x00000002   PAD
    0x0800391c   0x0800391c   0x0000006c   Code   RO          437    i.HAL_SPI_MspInit   spi.o
    0x08003988   0x08003988   0x000001ee   Code   RO         2873    i.HAL_SPI_TransmitReceive  stm32f2xx_hal_spi.o
    0x08003b76   0x08003b76   0x00000028   Code   RO         1716    i.HAL_SYSTICK_Config  stm32f2xx_hal_cortex.o
    0x08003b9e   0x08003b9e   0x00000002   Code   RO         3881    i.HAL_TIMEx_BreakCallback  stm32f2xx_hal_tim_ex.o
    0x08003ba0   0x08003ba0   0x00000002   Code   RO         3882    i.HAL_TIMEx_CommutCallback  stm32f2xx_hal_tim_ex.o
    0x08003ba2   0x08003ba2   0x00000002   PAD
    0x08003ba4   0x08003ba4   0x00000090   Code   RO         3900    i.HAL_TIMEx_MasterConfigSynchronization  stm32f2xx_hal_tim_ex.o
    0x08003c34   0x08003c34   0x0000005a   Code   RO         3177    i.HAL_TIM_Base_Init  stm32f2xx_hal_tim.o
    0x08003c8e   0x08003c8e   0x00000002   PAD
    0x08003c90   0x08003c90   0x00000054   Code   RO          547    i.HAL_TIM_Base_MspInit  tim.o
    0x08003ce4   0x08003ce4   0x00000078   Code   RO         3180    i.HAL_TIM_Base_Start  stm32f2xx_hal_tim.o
    0x08003d5c   0x08003d5c   0x00000080   Code   RO         3182    i.HAL_TIM_Base_Start_IT  stm32f2xx_hal_tim.o
    0x08003ddc   0x08003ddc   0x00000026   Code   RO         3183    i.HAL_TIM_Base_Stop  stm32f2xx_hal_tim.o
    0x08003e02   0x08003e02   0x00000002   Code   RO         3211    i.HAL_TIM_IC_CaptureCallback  stm32f2xx_hal_tim.o
    0x08003e04   0x08003e04   0x00000166   Code   RO         3225    i.HAL_TIM_IRQHandler  stm32f2xx_hal_tim.o
    0x08003f6a   0x08003f6a   0x00000002   PAD
    0x08003f6c   0x08003f6c   0x00000050   Code   RO          548    i.HAL_TIM_MspPostInit  tim.o
    0x08003fbc   0x08003fbc   0x00000002   Code   RO         3228    i.HAL_TIM_OC_DelayElapsedCallback  stm32f2xx_hal_tim.o
    0x08003fbe   0x08003fbe   0x000000cc   Code   RO         3249    i.HAL_TIM_PWM_ConfigChannel  stm32f2xx_hal_tim.o
    0x0800408a   0x0800408a   0x0000005a   Code   RO         3252    i.HAL_TIM_PWM_Init  stm32f2xx_hal_tim.o
    0x080040e4   0x080040e4   0x00000028   Code   RO          550    i.HAL_TIM_PWM_MspInit  tim.o
    0x0800410c   0x0800410c   0x00000002   Code   RO         3255    i.HAL_TIM_PWM_PulseFinishedCallback  stm32f2xx_hal_tim.o
    0x0800410e   0x0800410e   0x00000002   PAD
    0x08004110   0x08004110   0x000000c8   Code   RO         3257    i.HAL_TIM_PWM_Start  stm32f2xx_hal_tim.o
    0x080041d8   0x080041d8   0x0000007c   Code   RO         3260    i.HAL_TIM_PWM_Stop  stm32f2xx_hal_tim.o
    0x08004254   0x08004254   0x00000054   Code   RO          642    i.HAL_TIM_PeriodElapsedCallback  usart.o
    0x080042a8   0x080042a8   0x00000002   Code   RO         3268    i.HAL_TIM_TriggerCallback  stm32f2xx_hal_tim.o
    0x080042aa   0x080042aa   0x0000004e   Code   RO         4158    i.HAL_UARTEx_ReceiveToIdle_DMA  stm32f2xx_hal_uart.o
    0x080042f8   0x080042f8   0x0000004e   Code   RO         4159    i.HAL_UARTEx_ReceiveToIdle_IT  stm32f2xx_hal_uart.o
    0x08004346   0x08004346   0x00000002   PAD
    0x08004348   0x08004348   0x000000e0   Code   RO          643    i.HAL_UARTEx_RxEventCallback  usart.o
    0x08004428   0x08004428   0x00000020   Code   RO          644    i.HAL_UART_ErrorCallback  usart.o
    0x08004448   0x08004448   0x00000270   Code   RO         4177    i.HAL_UART_IRQHandler  stm32f2xx_hal_uart.o
    0x080046b8   0x080046b8   0x00000064   Code   RO         4178    i.HAL_UART_Init     stm32f2xx_hal_uart.o
    0x0800471c   0x0800471c   0x0000025c   Code   RO          646    i.HAL_UART_MspInit  usart.o
    0x08004978   0x08004978   0x00000002   Code   RO         4184    i.HAL_UART_RxCpltCallback  stm32f2xx_hal_uart.o
    0x0800497a   0x0800497a   0x00000002   Code   RO         4185    i.HAL_UART_RxHalfCpltCallback  stm32f2xx_hal_uart.o
    0x0800497c   0x0800497c   0x00000078   Code   RO         4187    i.HAL_UART_Transmit_DMA  stm32f2xx_hal_uart.o
    0x080049f4   0x080049f4   0x00000032   Code   RO         4188    i.HAL_UART_Transmit_IT  stm32f2xx_hal_uart.o
    0x08004a26   0x08004a26   0x00000002   PAD
    0x08004a28   0x08004a28   0x0000007c   Code   RO          647    i.HAL_UART_TxCpltCallback  usart.o
    0x08004aa4   0x08004aa4   0x00000002   Code   RO         4190    i.HAL_UART_TxHalfCpltCallback  stm32f2xx_hal_uart.o
    0x08004aa6   0x08004aa6   0x00000002   Code   RO          944    i.HardFault_Handler  stm32f2xx_it.o
    0x08004aa8   0x08004aa8   0x00000068   Code   RO          648    i.HmiAdjustDected   usart.o
    0x08004b10   0x08004b10   0x00000390   Code   RO          649    i.HmiCmdDealt       usart.o
    0x08004ea0   0x08004ea0   0x00000110   Code   RO          650    i.HmiWorkTimerRefresh  usart.o
    0x08004fb0   0x08004fb0   0x0000001e   Code   RO          651    i.IBPChkSum         usart.o
    0x08004fce   0x08004fce   0x00000002   PAD
    0x08004fd0   0x08004fd0   0x00000148   Code   RO          653    i.IBPCmdSend        usart.o
    0x08005118   0x08005118   0x000002f8   Code   RO          654    i.IBPDataAnalysis   usart.o
    0x08005410   0x08005410   0x000000c0   Code   RO          255    i.MX_ADC1_Init      adc.o
    0x080054d0   0x080054d0   0x0000003c   Code   RO          316    i.MX_DMA_Init       dma.o
    0x0800550c   0x0800550c   0x000000f8   Code   RO          207    i.MX_GPIO_Init      gpio.o
    0x08005604   0x08005604   0x00000002   Code   RO          340    i.MX_IWDG_Init      iwdg.o
    0x08005606   0x08005606   0x00000002   PAD
    0x08005608   0x08005608   0x00000034   Code   RO          372    i.MX_RTC_Init       rtc.o
    0x0800563c   0x0800563c   0x00000048   Code   RO          438    i.MX_SPI2_Init      spi.o
    0x08005684   0x08005684   0x00000070   Code   RO          551    i.MX_TIM4_Init      tim.o
    0x080056f4   0x080056f4   0x0000004c   Code   RO          552    i.MX_TIM6_Init      tim.o
    0x08005740   0x08005740   0x00000048   Code   RO          553    i.MX_TIM7_Init      tim.o
    0x08005788   0x08005788   0x00000038   Code   RO          655    i.MX_UART4_Init     usart.o
    0x080057c0   0x080057c0   0x00000038   Code   RO          656    i.MX_UART5_Init     usart.o
    0x080057f8   0x080057f8   0x0000006c   Code   RO          657    i.MX_USART1_UART_Init  usart.o
    0x08005864   0x08005864   0x00000038   Code   RO          658    i.MX_USART2_UART_Init  usart.o
    0x0800589c   0x0800589c   0x00000060   Code   RO          659    i.MX_USART3_UART_Init  usart.o
    0x080058fc   0x080058fc   0x00000032   Code   RO          660    i.MakeCrcFlow       usart.o
    0x0800592e   0x0800592e   0x00000002   PAD
    0x08005930   0x08005930   0x00000036   Code   RO          661    i.MakeCrcModbus     usart.o
    0x08005966   0x08005966   0x00000002   Code   RO          945    i.MemManage_Handler  stm32f2xx_it.o
    0x08005968   0x08005968   0x00000002   Code   RO          946    i.NMI_Handler       stm32f2xx_it.o
    0x0800596a   0x0800596a   0x00000002   Code   RO          947    i.PendSV_Handler    stm32f2xx_it.o
    0x0800596c   0x0800596c   0x00000084   Code   RO          208    i.RGBLedDealt       gpio.o
    0x080059f0   0x080059f0   0x00000028   Code   RO          373    i.RTCSetDateAndTime  rtc.o
    0x08005a18   0x08005a18   0x00000018   Code   RO          374    i.RTCSetTime        rtc.o
    0x08005a30   0x08005a30   0x00000012   Code   RO         2512    i.RTC_Bcd2ToByte    stm32f2xx_hal_rtc.o
    0x08005a42   0x08005a42   0x00000016   Code   RO         2513    i.RTC_ByteToBcd2    stm32f2xx_hal_rtc.o
    0x08005a58   0x08005a58   0x00000048   Code   RO         2514    i.RTC_EnterInitMode  stm32f2xx_hal_rtc.o
    0x08005aa0   0x08005aa0   0x00000022   Code   RO         2515    i.RTC_ExitInitMode  stm32f2xx_hal_rtc.o
    0x08005ac2   0x08005ac2   0x00000002   PAD
    0x08005ac4   0x08005ac4   0x00000024   Code   RO          375    i.RtcGetDateTime    rtc.o
    0x08005ae8   0x08005ae8   0x00000018   Code   RO          376    i.RtcSetDate        rtc.o
    0x08005b00   0x08005b00   0x00000020   Code   RO         2902    i.SPI_EndRxTxTransaction  stm32f2xx_hal_spi.o
    0x08005b20   0x08005b20   0x000000b8   Code   RO         2907    i.SPI_WaitFlagStateUntilTimeout  stm32f2xx_hal_spi.o
    0x08005bd8   0x08005bd8   0x00000002   Code   RO          948    i.SVC_Handler       stm32f2xx_it.o
    0x08005bda   0x08005bda   0x0000004c   Code   RO          662    i.SetCtrlVisable    usart.o
    0x08005c26   0x08005c26   0x00000002   PAD
    0x08005c28   0x08005c28   0x0000007c   Code   RO          663    i.SetRTCToHmi       usart.o
    0x08005ca4   0x08005ca4   0x00000060   Code   RO          664    i.SetScreenCurveRange  usart.o
    0x08005d04   0x08005d04   0x00000040   Code   RO          439    i.SpiFlashEraseSector  spi.o
    0x08005d44   0x08005d44   0x00000050   Code   RO          440    i.SpiFlashRead      spi.o
    0x08005d94   0x08005d94   0x0000006c   Code   RO          441    i.SpiFlashReadID    spi.o
    0x08005e00   0x08005e00   0x00000030   Code   RO          442    i.SpiFlashReadOffset  spi.o
    0x08005e30   0x08005e30   0x00000048   Code   RO          443    i.SpiFlashReadSR    spi.o
    0x08005e78   0x08005e78   0x0000001e   Code   RO          444    i.SpiFlashSendAddr  spi.o
    0x08005e96   0x08005e96   0x00000002   PAD
    0x08005e98   0x08005e98   0x00000038   Code   RO          445    i.SpiFlashSetOffset  spi.o
    0x08005ed0   0x08005ed0   0x0000000e   Code   RO          446    i.SpiFlashWaitBusy  spi.o
    0x08005ede   0x08005ede   0x00000002   PAD
    0x08005ee0   0x08005ee0   0x0000005c   Code   RO          447    i.SpiFlashWrite     spi.o
    0x08005f3c   0x08005f3c   0x0000002c   Code   RO          448    i.SpiFlashWriteEnable  spi.o
    0x08005f68   0x08005f68   0x00000020   Code   RO          449    i.SpiReadWriteByte  spi.o
    0x08005f88   0x08005f88   0x00000090   Code   RO          949    i.SysTick_Handler   stm32f2xx_it.o
    0x08006018   0x08006018   0x00000086   Code   RO           14    i.SystemClock_Config  main.o
    0x0800609e   0x0800609e   0x00000002   Code   RO         4512    i.SystemInit        system_stm32f2xx.o
    0x080060a0   0x080060a0   0x0000000c   Code   RO          950    i.TIM6_DAC_IRQHandler  stm32f2xx_it.o
    0x080060ac   0x080060ac   0x000000c8   Code   RO         3270    i.TIM_Base_SetConfig  stm32f2xx_hal_tim.o
    0x08006174   0x08006174   0x0000001a   Code   RO         3271    i.TIM_CCxChannelCmd  stm32f2xx_hal_tim.o
    0x0800618e   0x0800618e   0x00000002   PAD
    0x08006190   0x08006190   0x00000060   Code   RO         3283    i.TIM_OC1_SetConfig  stm32f2xx_hal_tim.o
    0x080061f0   0x080061f0   0x0000006c   Code   RO         3284    i.TIM_OC2_SetConfig  stm32f2xx_hal_tim.o
    0x0800625c   0x0800625c   0x00000068   Code   RO         3285    i.TIM_OC3_SetConfig  stm32f2xx_hal_tim.o
    0x080062c4   0x080062c4   0x00000050   Code   RO         3286    i.TIM_OC4_SetConfig  stm32f2xx_hal_tim.o
    0x08006314   0x08006314   0x0000000c   Code   RO          951    i.UART4_IRQHandler  stm32f2xx_it.o
    0x08006320   0x08006320   0x0000000c   Code   RO          952    i.UART5_IRQHandler  stm32f2xx_it.o
    0x0800632c   0x0800632c   0x00000010   Code   RO         4191    i.UART_DMAAbortOnError  stm32f2xx_hal_uart.o
    0x0800633c   0x0800633c   0x0000004a   Code   RO         4192    i.UART_DMAError     stm32f2xx_hal_uart.o
    0x08006386   0x08006386   0x00000086   Code   RO         4193    i.UART_DMAReceiveCplt  stm32f2xx_hal_uart.o
    0x0800640c   0x0800640c   0x0000001e   Code   RO         4195    i.UART_DMARxHalfCplt  stm32f2xx_hal_uart.o
    0x0800642a   0x0800642a   0x00000042   Code   RO         4197    i.UART_DMATransmitCplt  stm32f2xx_hal_uart.o
    0x0800646c   0x0800646c   0x0000000a   Code   RO         4199    i.UART_DMATxHalfCplt  stm32f2xx_hal_uart.o
    0x08006476   0x08006476   0x0000004e   Code   RO         4201    i.UART_EndRxTransfer  stm32f2xx_hal_uart.o
    0x080064c4   0x080064c4   0x0000001c   Code   RO         4202    i.UART_EndTxTransfer  stm32f2xx_hal_uart.o
    0x080064e0   0x080064e0   0x000000c2   Code   RO         4203    i.UART_Receive_IT   stm32f2xx_hal_uart.o
    0x080065a2   0x080065a2   0x00000002   PAD
    0x080065a4   0x080065a4   0x00000124   Code   RO         4204    i.UART_SetConfig    stm32f2xx_hal_uart.o
    0x080066c8   0x080066c8   0x00000090   Code   RO         4205    i.UART_Start_Receive_DMA  stm32f2xx_hal_uart.o
    0x08006758   0x08006758   0x00000036   Code   RO         4206    i.UART_Start_Receive_IT  stm32f2xx_hal_uart.o
    0x0800678e   0x0800678e   0x00000002   PAD
    0x08006790   0x08006790   0x0000000c   Code   RO          953    i.USART1_IRQHandler  stm32f2xx_it.o
    0x0800679c   0x0800679c   0x0000000c   Code   RO          954    i.USART2_IRQHandler  stm32f2xx_it.o
    0x080067a8   0x080067a8   0x0000000c   Code   RO          955    i.USART3_IRQHandler  stm32f2xx_it.o
    0x080067b4   0x080067b4   0x00000002   Code   RO          956    i.UsageFault_Handler  stm32f2xx_it.o
    0x080067b6   0x080067b6   0x00000002   PAD
    0x080067b8   0x080067b8   0x000000a8   Code   RO          665    i.UsartSendData     usart.o
    0x08006860   0x08006860   0x00000084   Code   RO          666    i.UsartSetTxBuf     usart.o
    0x080068e4   0x080068e4   0x00000028   Code   RO         4759    i.__ARM_fpclassify  m_ws.l(fpclassify.o)
    0x0800690c   0x0800690c   0x00000020   Code   RO         1718    i.__NVIC_SetPriority  stm32f2xx_hal_cortex.o
    0x0800692c   0x0800692c   0x0000000e   Code   RO         4593    i._is_digit         c_w.l(__printf_wp.o)
    0x0800693a   0x0800693a   0x00000002   PAD
    0x0800693c   0x0800693c   0x000004b8   Code   RO           15    i.main              main.o
    0x08006df4   0x08006df4   0x0000002c   Code   RO         4753    locale$$code        c_w.l(lc_numeric_c.o)
    0x08006e20   0x08006e20   0x00000062   Code   RO         4616    x$fpl$d2f           fz_ws.l(d2f.o)
    0x08006e82   0x08006e82   0x00000002   PAD
    0x08006e84   0x08006e84   0x00000150   Code   RO         4618    x$fpl$dadd          fz_ws.l(daddsub_clz.o)
    0x08006fd4   0x08006fd4   0x00000010   Code   RO         4688    x$fpl$dcheck1       fz_ws.l(dcheck1.o)
    0x08006fe4   0x08006fe4   0x000002b0   Code   RO         4625    x$fpl$ddiv          fz_ws.l(ddiv.o)
    0x08007294   0x08007294   0x0000005e   Code   RO         4628    x$fpl$dfix          fz_ws.l(dfix.o)
    0x080072f2   0x080072f2   0x00000002   PAD
    0x080072f4   0x080072f4   0x0000005a   Code   RO         4632    x$fpl$dfixu         fz_ws.l(dfixu.o)
    0x0800734e   0x0800734e   0x0000002e   Code   RO         4637    x$fpl$dflt          fz_ws.l(dflt_clz.o)
    0x0800737c   0x0800737c   0x00000026   Code   RO         4636    x$fpl$dfltu         fz_ws.l(dflt_clz.o)
    0x080073a2   0x080073a2   0x00000002   PAD
    0x080073a4   0x080073a4   0x00000154   Code   RO         4642    x$fpl$dmul          fz_ws.l(dmul.o)
    0x080074f8   0x080074f8   0x0000009c   Code   RO         4690    x$fpl$dnaninf       fz_ws.l(dnaninf.o)
    0x08007594   0x08007594   0x0000000c   Code   RO         4692    x$fpl$dretinf       fz_ws.l(dretinf.o)
    0x080075a0   0x080075a0   0x00000016   Code   RO         4619    x$fpl$drsb          fz_ws.l(daddsub_clz.o)
    0x080075b6   0x080075b6   0x00000002   PAD
    0x080075b8   0x080075b8   0x000001d4   Code   RO         4620    x$fpl$dsub          fz_ws.l(daddsub_clz.o)
    0x0800778c   0x0800778c   0x00000056   Code   RO         4644    x$fpl$f2d           fz_ws.l(f2d.o)
    0x080077e2   0x080077e2   0x00000002   PAD
    0x080077e4   0x080077e4   0x000000c4   Code   RO         4646    x$fpl$fadd          fz_ws.l(faddsub_clz.o)
    0x080078a8   0x080078a8   0x00000184   Code   RO         4653    x$fpl$fdiv          fz_ws.l(fdiv.o)
    0x08007a2c   0x08007a2c   0x00000036   Code   RO         4656    x$fpl$ffix          fz_ws.l(ffix.o)
    0x08007a62   0x08007a62   0x00000002   PAD
    0x08007a64   0x08007a64   0x00000026   Code   RO         4660    x$fpl$ffltu         fz_ws.l(fflt_clz.o)
    0x08007a8a   0x08007a8a   0x00000002   PAD
    0x08007a8c   0x08007a8c   0x00000102   Code   RO         4666    x$fpl$fmul          fz_ws.l(fmul.o)
    0x08007b8e   0x08007b8e   0x0000008c   Code   RO         4694    x$fpl$fnaninf       fz_ws.l(fnaninf.o)
    0x08007c1a   0x08007c1a   0x0000000a   Code   RO         4696    x$fpl$fretinf       fz_ws.l(fretinf.o)
    0x08007c24   0x08007c24   0x000000ea   Code   RO         4648    x$fpl$fsub          fz_ws.l(faddsub_clz.o)
    0x08007d0e   0x08007d0e   0x00000004   Code   RO         4668    x$fpl$printf1       fz_ws.l(printf1.o)
    0x08007d12   0x08007d12   0x00000064   Code   RO         4757    x$fpl$retnan        fz_ws.l(retnan.o)
    0x08007d76   0x08007d76   0x0000005c   Code   RO         4670    x$fpl$scalbn        fz_ws.l(scalbn.o)
    0x08007dd2   0x08007dd2   0x00000030   Code   RO         4825    x$fpl$trapveneer    fz_ws.l(trapv.o)
    0x08007e02   0x08007e02   0x00000000   Code   RO         4698    x$fpl$usenofp       fz_ws.l(usenofp.o)
    0x08007e02   0x08007e02   0x00000002   PAD
    0x08007e04   0x08007e04   0x00000018   Data   RO          257    .constdata          adc.o
    0x08007e1c   0x08007e1c   0x00000008   Data   RO         2256    .constdata          stm32f2xx_hal_dma.o
    0x08007e24   0x08007e24   0x00000010   Data   RO         4513    .constdata          system_stm32f2xx.o
    0x08007e34   0x08007e34   0x00000008   Data   RO         4514    .constdata          system_stm32f2xx.o
    0x08007e3c   0x08007e3c   0x00000028   Data   RO         4566    .constdata          c_w.l(_printf_hex_int.o)
    0x08007e64   0x08007e64   0x00000011   Data   RO         4596    .constdata          c_w.l(__printf_flags_wp.o)
    0x08007e75   0x08007e75   0x00000003   PAD
    0x08007e78   0x08007e78   0x00000094   Data   RO         4728    .constdata          c_w.l(bigflt0.o)
    0x08007f0c   0x08007f0c   0x00000020   Data   RO         4908    Region$$Table       anon$$obj.o
    0x08007f2c   0x08007f2c   0x0000001c   Data   RO         4752    locale$$data        c_w.l(lc_numeric_c.o)


    Execution Region RW_IRAM1 (Exec base: 0x20000000, Load base: 0x08007f48, Size: 0x00002788, Max: 0x00014000, ABSOLUTE)

    Exec Addr    Load Addr    Size         Type   Attr      Idx    E Section Name        Object

    0x20000000   0x08007f48   0x00000008   Data   RW          209    .data               gpio.o
    0x20000008   0x08007f50   0x00000004   Data   RW          258    .data               adc.o
    0x2000000c   0x08007f54   0x00000008   Data   RW          451    .data               spi.o
    0x20000014   0x08007f5c   0x0000003a   Data   RW          668    .data               usart.o
    0x2000004e   0x08007f96   0x0000000a   Data   RW          957    .data               stm32f2xx_it.o
    0x20000058   0x08007fa0   0x0000000c   Data   RW         1397    .data               stm32f2xx_hal.o
    0x20000064   0x08007fac   0x00000004   Data   RW         4515    .data               system_stm32f2xx.o
    0x20000068        -       0x00000010   Zero   RW           16    .bss                main.o
    0x20000078        -       0x00000420   Zero   RW          256    .bss                adc.o
    0x20000498        -       0x00000020   Zero   RW          377    .bss                rtc.o
    0x200004b8        -       0x00000058   Zero   RW          450    .bss                spi.o
    0x20000510        -       0x000000d8   Zero   RW          554    .bss                tim.o
    0x200005e8        -       0x00001b3c   Zero   RW          667    .bss                usart.o
    0x20002124        -       0x00000060   Zero   RW         4762    .bss                c_w.l(libspace.o)
    0x20002184   0x08007fb0   0x00000004   PAD
    0x20002188        -       0x00000200   Zero   RW            2    HEAP                startup_stm32f205xx.o
    0x20002388        -       0x00000400   Zero   RW            1    STACK               startup_stm32f205xx.o


    Execution Region RW_IRAM2 (Exec base: 0x2001c000, Load base: 0x08007fb0, Size: 0x00000000, Max: 0x00004000, ABSOLUTE)

    **** No section assigned to this execution region ****


==============================================================================

Image component sizes


      Code (inc. data)   RO Data    RW Data    ZI Data      Debug   Object Name

       684         70         24          4       1056       6970   adc.o
        60          4          0          0          0        746   dma.o
       640         54          0          8          0       5717   gpio.o
         2          0          0          0          0        399   iwdg.o
      1346        266          0          0         16     647098   main.o
       200         44          0          0         32       3186   rtc.o
       820         72          0          8         88       7558   spi.o
        64         26        388          0       1536        792   startup_stm32f205xx.o
       180         28          0         12          0       8997   stm32f2xx_hal.o
       998         34          0          0          0       4601   stm32f2xx_hal_adc.o
       198         14          0          0          0      30579   stm32f2xx_hal_cortex.o
      1084         16          8          0          0       7010   stm32f2xx_hal_dma.o
       684         50          0          0          0       3448   stm32f2xx_hal_gpio.o
        48          6          0          0          0        818   stm32f2xx_hal_msp.o
      1352         82          0          0          0       5040   stm32f2xx_hal_rcc.o
       340         20          0          0          0       1352   stm32f2xx_hal_rcc_ex.o
       832         30          0          0          0       7763   stm32f2xx_hal_rtc.o
       898          4          0          0          0       4693   stm32f2xx_hal_spi.o
      1974        176          0          0          0      14316   stm32f2xx_hal_tim.o
       148         28          0          0          0       2361   stm32f2xx_hal_tim_ex.o
      2176         42          0          0          0      15789   stm32f2xx_hal_uart.o
       256         54          0         10          0      10660   stm32f2xx_it.o
         2          0         24          4          0       1083   system_stm32f2xx.o
       464         62          0          0        216       3848   tim.o
      6872        750          0         58       6972      38534   usart.o

    ----------------------------------------------------------------------
     22376       1932        476        104       9916     833358   Object Totals
         0          0         32          0          0          0   (incl. Generated)
        54          0          0          0          0          0   (incl. Padding)

    ----------------------------------------------------------------------

      Code (inc. data)   RO Data    RW Data    ZI Data      Debug   Library Member Name

         8          0          0          0          0         68   __main.o
       312          4         17          0          0         92   __printf_flags_wp.o
        14          0          0          0          0         68   __printf_wp.o
         0          0          0          0          0          0   __rtentry.o
        12          0          0          0          0          0   __rtentry2.o
         6          0          0          0          0          0   __rtentry4.o
        52          8          0          0          0          0   __scatter.o
        26          0          0          0          0          0   __scatter_copy.o
        28          0          0          0          0          0   __scatter_zi.o
        44          0          0          0          0        108   _printf_char.o
        48          6          0          0          0         96   _printf_char_common.o
         6          0          0          0          0          0   _printf_d.o
       120         16          0          0          0         92   _printf_dec.o
         6          0          0          0          0          0   _printf_f.o
      1054          0          0          0          0        216   _printf_fp_dec.o
       128         16          0          0          0         84   _printf_fp_infnan.o
        88          4         40          0          0         88   _printf_hex_int.o
       178          0          0          0          0         88   _printf_intcommon.o
        78          0          0          0          0        108   _printf_pad.o
         0          0          0          0          0          0   _printf_percent.o
         4          0          0          0          0          0   _printf_percent_end.o
         6          0          0          0          0          0   _printf_s.o
        82          0          0          0          0         80   _printf_str.o
         6          0          0          0          0          0   _printf_x.o
        10          0          0          0          0         68   _sputc.o
       228          4        148          0          0         96   bigflt0.o
      1936        128          0          0          0        672   btod.o
        18          0          0          0          0         80   exit.o
         6          0          0          0          0        152   heapauxi.o
         0          0          0          0          0          0   indicate_semi.o
        44         10         28          0          0         76   lc_numeric_c.o
         2          0          0          0          0          0   libinit.o
        18          0          0          0          0          0   libinit2.o
         2          0          0          0          0          0   libshutdown.o
         2          0          0          0          0          0   libshutdown2.o
         8          4          0          0         96         68   libspace.o
       138          0          0          0          0         80   lludiv10.o
       238          0          0          0          0        100   lludivv7m.o
        40          6          0          0          0         84   noretval__2sprintf.o
         8          4          0          0          0         68   rt_locale_intlibspace.o
        78          0          0          0          0         80   rt_memclr_w.o
         2          0          0          0          0          0   rtexit.o
        10          0          0          0          0          0   rtexit2.o
       128          0          0          0          0         68   strcmpv7m.o
        62          0          0          0          0         76   strlen.o
        12          4          0          0          0         68   sys_exit.o
        74          0          0          0          0         80   sys_stackheap_outer.o
         2          0          0          0          0         68   use_no_semi.o
        98          4          0          0          0         92   d2f.o
       826         16          0          0          0        348   daddsub_clz.o
        16          4          0          0          0         68   dcheck1.o
       688        140          0          0          0        208   ddiv.o
        94          4          0          0          0         92   dfix.o
        90          4          0          0          0         92   dfixu.o
        84          0          0          0          0        136   dflt_clz.o
       340         12          0          0          0        104   dmul.o
       156          4          0          0          0         92   dnaninf.o
        12          0          0          0          0         68   dretinf.o
        86          4          0          0          0         84   f2d.o
       430          8          0          0          0        168   faddsub_clz.o
       388         76          0          0          0         96   fdiv.o
        54          4          0          0          0         84   ffix.o
        38          0          0          0          0         68   fflt_clz.o
       258          4          0          0          0         84   fmul.o
       140          4          0          0          0         84   fnaninf.o
        10          0          0          0          0         68   fretinf.o
         4          0          0          0          0         68   printf1.o
       100          0          0          0          0         68   retnan.o
        92          0          0          0          0         68   scalbn.o
        48          0          0          0          0         68   trapv.o
         0          0          0          0          0          0   usenofp.o
        40          0          0          0          0         68   fpclassify.o

    ----------------------------------------------------------------------
      9496        502        236          0        100       5548   Library Totals
        32          0          3          0          4          0   (incl. Padding)

    ----------------------------------------------------------------------

      Code (inc. data)   RO Data    RW Data    ZI Data      Debug   Library Name

      5372        214        233          0         96       3172   c_w.l
      4052        288          0          0          0       2308   fz_ws.l
        40          0          0          0          0         68   m_ws.l

    ----------------------------------------------------------------------
      9496        502        236          0        100       5548   Library Totals

    ----------------------------------------------------------------------

==============================================================================


      Code (inc. data)   RO Data    RW Data    ZI Data      Debug   

     31872       2434        712        104      10016     826058   Grand Totals
     31872       2434        712        104      10016     826058   ELF Image Totals
     31872       2434        712        104          0          0   ROM Totals

==============================================================================

    Total RO  Size (Code + RO Data)                32584 (  31.82kB)
    Total RW  Size (RW Data + ZI Data)             10120 (   9.88kB)
    Total ROM Size (Code + RO Data + RW Data)      32688 (  31.92kB)

==============================================================================

